
login:     file format elf64-littleaarch64


Disassembly of section .init:

0000000000002d20 <.init>:
    2d20:	a9bf7bfd 	stp	x29, x30, [sp, #-16]!
    2d24:	910003fd 	mov	x29, sp
    2d28:	94000812 	bl	4d70 <ferror@plt+0x1880>
    2d2c:	a8c17bfd 	ldp	x29, x30, [sp], #16
    2d30:	d65f03c0 	ret

Disassembly of section .plt:

0000000000002d40 <memcpy@plt-0x20>:
    2d40:	a9bf7bf0 	stp	x16, x30, [sp, #-16]!
    2d44:	b00000d0 	adrp	x16, 1b000 <putsgent@@Base+0x12670>
    2d48:	f945d611 	ldr	x17, [x16, #2984]
    2d4c:	912ea210 	add	x16, x16, #0xba8
    2d50:	d61f0220 	br	x17
    2d54:	d503201f 	nop
    2d58:	d503201f 	nop
    2d5c:	d503201f 	nop

0000000000002d60 <memcpy@plt>:
    2d60:	b00000d0 	adrp	x16, 1b000 <putsgent@@Base+0x12670>
    2d64:	f945da11 	ldr	x17, [x16, #2992]
    2d68:	912ec210 	add	x16, x16, #0xbb0
    2d6c:	d61f0220 	br	x17

0000000000002d70 <getpwnam_r@plt>:
    2d70:	b00000d0 	adrp	x16, 1b000 <putsgent@@Base+0x12670>
    2d74:	f945de11 	ldr	x17, [x16, #3000]
    2d78:	912ee210 	add	x16, x16, #0xbb8
    2d7c:	d61f0220 	br	x17

0000000000002d80 <initgroups@plt>:
    2d80:	b00000d0 	adrp	x16, 1b000 <putsgent@@Base+0x12670>
    2d84:	f945e211 	ldr	x17, [x16, #3008]
    2d88:	912f0210 	add	x16, x16, #0xbc0
    2d8c:	d61f0220 	br	x17

0000000000002d90 <pututline@plt>:
    2d90:	b00000d0 	adrp	x16, 1b000 <putsgent@@Base+0x12670>
    2d94:	f945e611 	ldr	x17, [x16, #3016]
    2d98:	912f2210 	add	x16, x16, #0xbc8
    2d9c:	d61f0220 	br	x17

0000000000002da0 <_exit@plt>:
    2da0:	b00000d0 	adrp	x16, 1b000 <putsgent@@Base+0x12670>
    2da4:	f945ea11 	ldr	x17, [x16, #3024]
    2da8:	912f4210 	add	x16, x16, #0xbd0
    2dac:	d61f0220 	br	x17

0000000000002db0 <freeaddrinfo@plt>:
    2db0:	b00000d0 	adrp	x16, 1b000 <putsgent@@Base+0x12670>
    2db4:	f945ee11 	ldr	x17, [x16, #3032]
    2db8:	912f6210 	add	x16, x16, #0xbd8
    2dbc:	d61f0220 	br	x17

0000000000002dc0 <setuid@plt>:
    2dc0:	b00000d0 	adrp	x16, 1b000 <putsgent@@Base+0x12670>
    2dc4:	f945f211 	ldr	x17, [x16, #3040]
    2dc8:	912f8210 	add	x16, x16, #0xbe0
    2dcc:	d61f0220 	br	x17

0000000000002dd0 <strtoul@plt>:
    2dd0:	b00000d0 	adrp	x16, 1b000 <putsgent@@Base+0x12670>
    2dd4:	f945f611 	ldr	x17, [x16, #3048]
    2dd8:	912fa210 	add	x16, x16, #0xbe8
    2ddc:	d61f0220 	br	x17

0000000000002de0 <strlen@plt>:
    2de0:	b00000d0 	adrp	x16, 1b000 <putsgent@@Base+0x12670>
    2de4:	f945fa11 	ldr	x17, [x16, #3056]
    2de8:	912fc210 	add	x16, x16, #0xbf0
    2dec:	d61f0220 	br	x17

0000000000002df0 <getsid@plt>:
    2df0:	b00000d0 	adrp	x16, 1b000 <putsgent@@Base+0x12670>
    2df4:	f945fe11 	ldr	x17, [x16, #3064]
    2df8:	912fe210 	add	x16, x16, #0xbf8
    2dfc:	d61f0220 	br	x17

0000000000002e00 <fputs@plt>:
    2e00:	b00000d0 	adrp	x16, 1b000 <putsgent@@Base+0x12670>
    2e04:	f9460211 	ldr	x17, [x16, #3072]
    2e08:	91300210 	add	x16, x16, #0xc00
    2e0c:	d61f0220 	br	x17

0000000000002e10 <exit@plt>:
    2e10:	b00000d0 	adrp	x16, 1b000 <putsgent@@Base+0x12670>
    2e14:	f9460611 	ldr	x17, [x16, #3080]
    2e18:	91302210 	add	x16, x16, #0xc08
    2e1c:	d61f0220 	br	x17

0000000000002e20 <pam_start@plt>:
    2e20:	b00000d0 	adrp	x16, 1b000 <putsgent@@Base+0x12670>
    2e24:	f9460a11 	ldr	x17, [x16, #3088]
    2e28:	91304210 	add	x16, x16, #0xc10
    2e2c:	d61f0220 	br	x17

0000000000002e30 <getutent@plt>:
    2e30:	b00000d0 	adrp	x16, 1b000 <putsgent@@Base+0x12670>
    2e34:	f9460e11 	ldr	x17, [x16, #3096]
    2e38:	91306210 	add	x16, x16, #0xc18
    2e3c:	d61f0220 	br	x17

0000000000002e40 <execle@plt>:
    2e40:	b00000d0 	adrp	x16, 1b000 <putsgent@@Base+0x12670>
    2e44:	f9461211 	ldr	x17, [x16, #3104]
    2e48:	91308210 	add	x16, x16, #0xc20
    2e4c:	d61f0220 	br	x17

0000000000002e50 <perror@plt>:
    2e50:	b00000d0 	adrp	x16, 1b000 <putsgent@@Base+0x12670>
    2e54:	f9461611 	ldr	x17, [x16, #3112]
    2e58:	9130a210 	add	x16, x16, #0xc28
    2e5c:	d61f0220 	br	x17

0000000000002e60 <strtoll@plt>:
    2e60:	b00000d0 	adrp	x16, 1b000 <putsgent@@Base+0x12670>
    2e64:	f9461a11 	ldr	x17, [x16, #3120]
    2e68:	9130c210 	add	x16, x16, #0xc30
    2e6c:	d61f0220 	br	x17

0000000000002e70 <geteuid@plt>:
    2e70:	b00000d0 	adrp	x16, 1b000 <putsgent@@Base+0x12670>
    2e74:	f9461e11 	ldr	x17, [x16, #3128]
    2e78:	9130e210 	add	x16, x16, #0xc38
    2e7c:	d61f0220 	br	x17

0000000000002e80 <pam_set_item@plt>:
    2e80:	b00000d0 	adrp	x16, 1b000 <putsgent@@Base+0x12670>
    2e84:	f9462211 	ldr	x17, [x16, #3136]
    2e88:	91310210 	add	x16, x16, #0xc40
    2e8c:	d61f0220 	br	x17

0000000000002e90 <ruserok@plt>:
    2e90:	b00000d0 	adrp	x16, 1b000 <putsgent@@Base+0x12670>
    2e94:	f9462611 	ldr	x17, [x16, #3144]
    2e98:	91312210 	add	x16, x16, #0xc48
    2e9c:	d61f0220 	br	x17

0000000000002ea0 <setutent@plt>:
    2ea0:	b00000d0 	adrp	x16, 1b000 <putsgent@@Base+0x12670>
    2ea4:	f9462a11 	ldr	x17, [x16, #3152]
    2ea8:	91314210 	add	x16, x16, #0xc50
    2eac:	d61f0220 	br	x17

0000000000002eb0 <ttyname@plt>:
    2eb0:	b00000d0 	adrp	x16, 1b000 <putsgent@@Base+0x12670>
    2eb4:	f9462e11 	ldr	x17, [x16, #3160]
    2eb8:	91316210 	add	x16, x16, #0xc58
    2ebc:	d61f0220 	br	x17

0000000000002ec0 <__cxa_finalize@plt>:
    2ec0:	b00000d0 	adrp	x16, 1b000 <putsgent@@Base+0x12670>
    2ec4:	f9463211 	ldr	x17, [x16, #3168]
    2ec8:	91318210 	add	x16, x16, #0xc60
    2ecc:	d61f0220 	br	x17

0000000000002ed0 <getuid@plt>:
    2ed0:	b00000d0 	adrp	x16, 1b000 <putsgent@@Base+0x12670>
    2ed4:	f9463611 	ldr	x17, [x16, #3176]
    2ed8:	9131a210 	add	x16, x16, #0xc68
    2edc:	d61f0220 	br	x17

0000000000002ee0 <putc@plt>:
    2ee0:	b00000d0 	adrp	x16, 1b000 <putsgent@@Base+0x12670>
    2ee4:	f9463a11 	ldr	x17, [x16, #3184]
    2ee8:	9131c210 	add	x16, x16, #0xc70
    2eec:	d61f0220 	br	x17

0000000000002ef0 <strftime@plt>:
    2ef0:	b00000d0 	adrp	x16, 1b000 <putsgent@@Base+0x12670>
    2ef4:	f9463e11 	ldr	x17, [x16, #3192]
    2ef8:	9131e210 	add	x16, x16, #0xc78
    2efc:	d61f0220 	br	x17

0000000000002f00 <closelog@plt>:
    2f00:	b00000d0 	adrp	x16, 1b000 <putsgent@@Base+0x12670>
    2f04:	f9464211 	ldr	x17, [x16, #3200]
    2f08:	91320210 	add	x16, x16, #0xc80
    2f0c:	d61f0220 	br	x17

0000000000002f10 <fork@plt>:
    2f10:	b00000d0 	adrp	x16, 1b000 <putsgent@@Base+0x12670>
    2f14:	f9464611 	ldr	x17, [x16, #3208]
    2f18:	91322210 	add	x16, x16, #0xc88
    2f1c:	d61f0220 	br	x17

0000000000002f20 <endgrent@plt>:
    2f20:	b00000d0 	adrp	x16, 1b000 <putsgent@@Base+0x12670>
    2f24:	f9464a11 	ldr	x17, [x16, #3216]
    2f28:	91324210 	add	x16, x16, #0xc90
    2f2c:	d61f0220 	br	x17

0000000000002f30 <lseek@plt>:
    2f30:	b00000d0 	adrp	x16, 1b000 <putsgent@@Base+0x12670>
    2f34:	f9464e11 	ldr	x17, [x16, #3224]
    2f38:	91326210 	add	x16, x16, #0xc98
    2f3c:	d61f0220 	br	x17

0000000000002f40 <tcgetattr@plt>:
    2f40:	b00000d0 	adrp	x16, 1b000 <putsgent@@Base+0x12670>
    2f44:	f9465211 	ldr	x17, [x16, #3232]
    2f48:	91328210 	add	x16, x16, #0xca0
    2f4c:	d61f0220 	br	x17

0000000000002f50 <stpcpy@plt>:
    2f50:	b00000d0 	adrp	x16, 1b000 <putsgent@@Base+0x12670>
    2f54:	f9465611 	ldr	x17, [x16, #3240]
    2f58:	9132a210 	add	x16, x16, #0xca8
    2f5c:	d61f0220 	br	x17

0000000000002f60 <pam_chauthtok@plt>:
    2f60:	b00000d0 	adrp	x16, 1b000 <putsgent@@Base+0x12670>
    2f64:	f9465a11 	ldr	x17, [x16, #3248]
    2f68:	9132c210 	add	x16, x16, #0xcb0
    2f6c:	d61f0220 	br	x17

0000000000002f70 <localtime@plt>:
    2f70:	b00000d0 	adrp	x16, 1b000 <putsgent@@Base+0x12670>
    2f74:	f9465e11 	ldr	x17, [x16, #3256]
    2f78:	9132e210 	add	x16, x16, #0xcb8
    2f7c:	d61f0220 	br	x17

0000000000002f80 <signal@plt>:
    2f80:	b00000d0 	adrp	x16, 1b000 <putsgent@@Base+0x12670>
    2f84:	f9466211 	ldr	x17, [x16, #3264]
    2f88:	91330210 	add	x16, x16, #0xcc0
    2f8c:	d61f0220 	br	x17

0000000000002f90 <__snprintf_chk@plt>:
    2f90:	b00000d0 	adrp	x16, 1b000 <putsgent@@Base+0x12670>
    2f94:	f9466611 	ldr	x17, [x16, #3272]
    2f98:	91332210 	add	x16, x16, #0xcc8
    2f9c:	d61f0220 	br	x17

0000000000002fa0 <pam_end@plt>:
    2fa0:	b00000d0 	adrp	x16, 1b000 <putsgent@@Base+0x12670>
    2fa4:	f9466a11 	ldr	x17, [x16, #3280]
    2fa8:	91334210 	add	x16, x16, #0xcd0
    2fac:	d61f0220 	br	x17

0000000000002fb0 <fclose@plt>:
    2fb0:	b00000d0 	adrp	x16, 1b000 <putsgent@@Base+0x12670>
    2fb4:	f9466e11 	ldr	x17, [x16, #3288]
    2fb8:	91336210 	add	x16, x16, #0xcd8
    2fbc:	d61f0220 	br	x17

0000000000002fc0 <getpid@plt>:
    2fc0:	b00000d0 	adrp	x16, 1b000 <putsgent@@Base+0x12670>
    2fc4:	f9467211 	ldr	x17, [x16, #3296]
    2fc8:	91338210 	add	x16, x16, #0xce0
    2fcc:	d61f0220 	br	x17

0000000000002fd0 <fopen@plt>:
    2fd0:	b00000d0 	adrp	x16, 1b000 <putsgent@@Base+0x12670>
    2fd4:	f9467611 	ldr	x17, [x16, #3304]
    2fd8:	9133a210 	add	x16, x16, #0xce8
    2fdc:	d61f0220 	br	x17

0000000000002fe0 <pam_strerror@plt>:
    2fe0:	b00000d0 	adrp	x16, 1b000 <putsgent@@Base+0x12670>
    2fe4:	f9467a11 	ldr	x17, [x16, #3312]
    2fe8:	9133c210 	add	x16, x16, #0xcf0
    2fec:	d61f0220 	br	x17

0000000000002ff0 <time@plt>:
    2ff0:	b00000d0 	adrp	x16, 1b000 <putsgent@@Base+0x12670>
    2ff4:	f9467e11 	ldr	x17, [x16, #3320]
    2ff8:	9133e210 	add	x16, x16, #0xcf8
    2ffc:	d61f0220 	br	x17

0000000000003000 <malloc@plt>:
    3000:	900000d0 	adrp	x16, 1b000 <putsgent@@Base+0x12670>
    3004:	f9468211 	ldr	x17, [x16, #3328]
    3008:	91340210 	add	x16, x16, #0xd00
    300c:	d61f0220 	br	x17

0000000000003010 <open@plt>:
    3010:	900000d0 	adrp	x16, 1b000 <putsgent@@Base+0x12670>
    3014:	f9468611 	ldr	x17, [x16, #3336]
    3018:	91342210 	add	x16, x16, #0xd08
    301c:	d61f0220 	br	x17

0000000000003020 <audit_open@plt>:
    3020:	900000d0 	adrp	x16, 1b000 <putsgent@@Base+0x12670>
    3024:	f9468a11 	ldr	x17, [x16, #3344]
    3028:	91344210 	add	x16, x16, #0xd10
    302c:	d61f0220 	br	x17

0000000000003030 <__strncpy_chk@plt>:
    3030:	900000d0 	adrp	x16, 1b000 <putsgent@@Base+0x12670>
    3034:	f9468e11 	ldr	x17, [x16, #3352]
    3038:	91346210 	add	x16, x16, #0xd18
    303c:	d61f0220 	br	x17

0000000000003040 <pam_getenvlist@plt>:
    3040:	900000d0 	adrp	x16, 1b000 <putsgent@@Base+0x12670>
    3044:	f9469211 	ldr	x17, [x16, #3360]
    3048:	91348210 	add	x16, x16, #0xd20
    304c:	d61f0220 	br	x17

0000000000003050 <getppid@plt>:
    3050:	900000d0 	adrp	x16, 1b000 <putsgent@@Base+0x12670>
    3054:	f9469611 	ldr	x17, [x16, #3368]
    3058:	9134a210 	add	x16, x16, #0xd28
    305c:	d61f0220 	br	x17

0000000000003060 <strncmp@plt>:
    3060:	900000d0 	adrp	x16, 1b000 <putsgent@@Base+0x12670>
    3064:	f9469a11 	ldr	x17, [x16, #3376]
    3068:	9134c210 	add	x16, x16, #0xd30
    306c:	d61f0220 	br	x17

0000000000003070 <bindtextdomain@plt>:
    3070:	900000d0 	adrp	x16, 1b000 <putsgent@@Base+0x12670>
    3074:	f9469e11 	ldr	x17, [x16, #3384]
    3078:	9134e210 	add	x16, x16, #0xd38
    307c:	d61f0220 	br	x17

0000000000003080 <__libc_start_main@plt>:
    3080:	900000d0 	adrp	x16, 1b000 <putsgent@@Base+0x12670>
    3084:	f946a211 	ldr	x17, [x16, #3392]
    3088:	91350210 	add	x16, x16, #0xd40
    308c:	d61f0220 	br	x17

0000000000003090 <__printf_chk@plt>:
    3090:	900000d0 	adrp	x16, 1b000 <putsgent@@Base+0x12670>
    3094:	f946a611 	ldr	x17, [x16, #3400]
    3098:	91352210 	add	x16, x16, #0xd48
    309c:	d61f0220 	br	x17

00000000000030a0 <memset@plt>:
    30a0:	900000d0 	adrp	x16, 1b000 <putsgent@@Base+0x12670>
    30a4:	f946aa11 	ldr	x17, [x16, #3408]
    30a8:	91354210 	add	x16, x16, #0xd50
    30ac:	d61f0220 	br	x17

00000000000030b0 <gettimeofday@plt>:
    30b0:	900000d0 	adrp	x16, 1b000 <putsgent@@Base+0x12670>
    30b4:	f946ae11 	ldr	x17, [x16, #3416]
    30b8:	91356210 	add	x16, x16, #0xd58
    30bc:	d61f0220 	br	x17

00000000000030c0 <getpwnam@plt>:
    30c0:	900000d0 	adrp	x16, 1b000 <putsgent@@Base+0x12670>
    30c4:	f946b211 	ldr	x17, [x16, #3424]
    30c8:	91358210 	add	x16, x16, #0xd60
    30cc:	d61f0220 	br	x17

00000000000030d0 <getopt@plt>:
    30d0:	900000d0 	adrp	x16, 1b000 <putsgent@@Base+0x12670>
    30d4:	f946b611 	ldr	x17, [x16, #3432]
    30d8:	9135a210 	add	x16, x16, #0xd68
    30dc:	d61f0220 	br	x17

00000000000030e0 <fchmod@plt>:
    30e0:	900000d0 	adrp	x16, 1b000 <putsgent@@Base+0x12670>
    30e4:	f946ba11 	ldr	x17, [x16, #3440]
    30e8:	9135c210 	add	x16, x16, #0xd70
    30ec:	d61f0220 	br	x17

00000000000030f0 <misc_conv@plt>:
    30f0:	900000d0 	adrp	x16, 1b000 <putsgent@@Base+0x12670>
    30f4:	f946be11 	ldr	x17, [x16, #3448]
    30f8:	9135e210 	add	x16, x16, #0xd78
    30fc:	d61f0220 	br	x17

0000000000003100 <calloc@plt>:
    3100:	900000d0 	adrp	x16, 1b000 <putsgent@@Base+0x12670>
    3104:	f946c211 	ldr	x17, [x16, #3456]
    3108:	91360210 	add	x16, x16, #0xd80
    310c:	d61f0220 	br	x17

0000000000003110 <strcasecmp@plt>:
    3110:	900000d0 	adrp	x16, 1b000 <putsgent@@Base+0x12670>
    3114:	f946c611 	ldr	x17, [x16, #3464]
    3118:	91362210 	add	x16, x16, #0xd88
    311c:	d61f0220 	br	x17

0000000000003120 <realloc@plt>:
    3120:	900000d0 	adrp	x16, 1b000 <putsgent@@Base+0x12670>
    3124:	f946ca11 	ldr	x17, [x16, #3472]
    3128:	91364210 	add	x16, x16, #0xd90
    312c:	d61f0220 	br	x17

0000000000003130 <rewind@plt>:
    3130:	900000d0 	adrp	x16, 1b000 <putsgent@@Base+0x12670>
    3134:	f946ce11 	ldr	x17, [x16, #3480]
    3138:	91366210 	add	x16, x16, #0xd98
    313c:	d61f0220 	br	x17

0000000000003140 <strdup@plt>:
    3140:	900000d0 	adrp	x16, 1b000 <putsgent@@Base+0x12670>
    3144:	f946d211 	ldr	x17, [x16, #3488]
    3148:	91368210 	add	x16, x16, #0xda0
    314c:	d61f0220 	br	x17

0000000000003150 <strerror@plt>:
    3150:	900000d0 	adrp	x16, 1b000 <putsgent@@Base+0x12670>
    3154:	f946d611 	ldr	x17, [x16, #3496]
    3158:	9136a210 	add	x16, x16, #0xda8
    315c:	d61f0220 	br	x17

0000000000003160 <__stack_chk_fail@plt>:
    3160:	900000d0 	adrp	x16, 1b000 <putsgent@@Base+0x12670>
    3164:	f946da11 	ldr	x17, [x16, #3504]
    3168:	9136c210 	add	x16, x16, #0xdb0
    316c:	d61f0220 	br	x17

0000000000003170 <close@plt>:
    3170:	900000d0 	adrp	x16, 1b000 <putsgent@@Base+0x12670>
    3174:	f946de11 	ldr	x17, [x16, #3512]
    3178:	9136e210 	add	x16, x16, #0xdb8
    317c:	d61f0220 	br	x17

0000000000003180 <strrchr@plt>:
    3180:	900000d0 	adrp	x16, 1b000 <putsgent@@Base+0x12670>
    3184:	f946e211 	ldr	x17, [x16, #3520]
    3188:	91370210 	add	x16, x16, #0xdc0
    318c:	d61f0220 	br	x17

0000000000003190 <__gmon_start__@plt>:
    3190:	900000d0 	adrp	x16, 1b000 <putsgent@@Base+0x12670>
    3194:	f946e611 	ldr	x17, [x16, #3528]
    3198:	91372210 	add	x16, x16, #0xdc8
    319c:	d61f0220 	br	x17

00000000000031a0 <write@plt>:
    31a0:	900000d0 	adrp	x16, 1b000 <putsgent@@Base+0x12670>
    31a4:	f946ea11 	ldr	x17, [x16, #3536]
    31a8:	91374210 	add	x16, x16, #0xdd0
    31ac:	d61f0220 	br	x17

00000000000031b0 <abort@plt>:
    31b0:	900000d0 	adrp	x16, 1b000 <putsgent@@Base+0x12670>
    31b4:	f946ee11 	ldr	x17, [x16, #3544]
    31b8:	91376210 	add	x16, x16, #0xdd8
    31bc:	d61f0220 	br	x17

00000000000031c0 <openlog@plt>:
    31c0:	900000d0 	adrp	x16, 1b000 <putsgent@@Base+0x12670>
    31c4:	f946f211 	ldr	x17, [x16, #3552]
    31c8:	91378210 	add	x16, x16, #0xde0
    31cc:	d61f0220 	br	x17

00000000000031d0 <getgrgid_r@plt>:
    31d0:	900000d0 	adrp	x16, 1b000 <putsgent@@Base+0x12670>
    31d4:	f946f611 	ldr	x17, [x16, #3560]
    31d8:	9137a210 	add	x16, x16, #0xde8
    31dc:	d61f0220 	br	x17

00000000000031e0 <setgid@plt>:
    31e0:	900000d0 	adrp	x16, 1b000 <putsgent@@Base+0x12670>
    31e4:	f946fa11 	ldr	x17, [x16, #3568]
    31e8:	9137c210 	add	x16, x16, #0xdf0
    31ec:	d61f0220 	br	x17

00000000000031f0 <access@plt>:
    31f0:	900000d0 	adrp	x16, 1b000 <putsgent@@Base+0x12670>
    31f4:	f946fe11 	ldr	x17, [x16, #3576]
    31f8:	9137e210 	add	x16, x16, #0xdf8
    31fc:	d61f0220 	br	x17

0000000000003200 <feof@plt>:
    3200:	900000d0 	adrp	x16, 1b000 <putsgent@@Base+0x12670>
    3204:	f9470211 	ldr	x17, [x16, #3584]
    3208:	91380210 	add	x16, x16, #0xe00
    320c:	d61f0220 	br	x17

0000000000003210 <puts@plt>:
    3210:	900000d0 	adrp	x16, 1b000 <putsgent@@Base+0x12670>
    3214:	f9470611 	ldr	x17, [x16, #3592]
    3218:	91382210 	add	x16, x16, #0xe08
    321c:	d61f0220 	br	x17

0000000000003220 <endspent@plt>:
    3220:	900000d0 	adrp	x16, 1b000 <putsgent@@Base+0x12670>
    3224:	f9470a11 	ldr	x17, [x16, #3600]
    3228:	91384210 	add	x16, x16, #0xe10
    322c:	d61f0220 	br	x17

0000000000003230 <textdomain@plt>:
    3230:	900000d0 	adrp	x16, 1b000 <putsgent@@Base+0x12670>
    3234:	f9470e11 	ldr	x17, [x16, #3608]
    3238:	91386210 	add	x16, x16, #0xe18
    323c:	d61f0220 	br	x17

0000000000003240 <__fprintf_chk@plt>:
    3240:	900000d0 	adrp	x16, 1b000 <putsgent@@Base+0x12670>
    3244:	f9471211 	ldr	x17, [x16, #3616]
    3248:	91388210 	add	x16, x16, #0xe20
    324c:	d61f0220 	br	x17

0000000000003250 <strcmp@plt>:
    3250:	900000d0 	adrp	x16, 1b000 <putsgent@@Base+0x12670>
    3254:	f9471611 	ldr	x17, [x16, #3624]
    3258:	9138a210 	add	x16, x16, #0xe28
    325c:	d61f0220 	br	x17

0000000000003260 <__ctype_b_loc@plt>:
    3260:	900000d0 	adrp	x16, 1b000 <putsgent@@Base+0x12670>
    3264:	f9471a11 	ldr	x17, [x16, #3632]
    3268:	9138c210 	add	x16, x16, #0xe30
    326c:	d61f0220 	br	x17

0000000000003270 <strtol@plt>:
    3270:	900000d0 	adrp	x16, 1b000 <putsgent@@Base+0x12670>
    3274:	f9471e11 	ldr	x17, [x16, #3640]
    3278:	9138e210 	add	x16, x16, #0xe38
    327c:	d61f0220 	br	x17

0000000000003280 <getgrnam_r@plt>:
    3280:	900000d0 	adrp	x16, 1b000 <putsgent@@Base+0x12670>
    3284:	f9472211 	ldr	x17, [x16, #3648]
    3288:	91390210 	add	x16, x16, #0xe40
    328c:	d61f0220 	br	x17

0000000000003290 <pam_close_session@plt>:
    3290:	900000d0 	adrp	x16, 1b000 <putsgent@@Base+0x12670>
    3294:	f9472611 	ldr	x17, [x16, #3656]
    3298:	91392210 	add	x16, x16, #0xe48
    329c:	d61f0220 	br	x17

00000000000032a0 <chdir@plt>:
    32a0:	900000d0 	adrp	x16, 1b000 <putsgent@@Base+0x12670>
    32a4:	f9472a11 	ldr	x17, [x16, #3664]
    32a8:	91394210 	add	x16, x16, #0xe50
    32ac:	d61f0220 	br	x17

00000000000032b0 <free@plt>:
    32b0:	900000d0 	adrp	x16, 1b000 <putsgent@@Base+0x12670>
    32b4:	f9472e11 	ldr	x17, [x16, #3672]
    32b8:	91396210 	add	x16, x16, #0xe58
    32bc:	d61f0220 	br	x17

00000000000032c0 <strspn@plt>:
    32c0:	900000d0 	adrp	x16, 1b000 <putsgent@@Base+0x12670>
    32c4:	f9473211 	ldr	x17, [x16, #3680]
    32c8:	91398210 	add	x16, x16, #0xe60
    32cc:	d61f0220 	br	x17

00000000000032d0 <strchr@plt>:
    32d0:	900000d0 	adrp	x16, 1b000 <putsgent@@Base+0x12670>
    32d4:	f9473611 	ldr	x17, [x16, #3688]
    32d8:	9139a210 	add	x16, x16, #0xe68
    32dc:	d61f0220 	br	x17

00000000000032e0 <endutent@plt>:
    32e0:	900000d0 	adrp	x16, 1b000 <putsgent@@Base+0x12670>
    32e4:	f9473a11 	ldr	x17, [x16, #3696]
    32e8:	9139c210 	add	x16, x16, #0xe70
    32ec:	d61f0220 	br	x17

00000000000032f0 <__syslog_chk@plt>:
    32f0:	900000d0 	adrp	x16, 1b000 <putsgent@@Base+0x12670>
    32f4:	f9473e11 	ldr	x17, [x16, #3704]
    32f8:	9139e210 	add	x16, x16, #0xe78
    32fc:	d61f0220 	br	x17

0000000000003300 <wait@plt>:
    3300:	900000d0 	adrp	x16, 1b000 <putsgent@@Base+0x12670>
    3304:	f9474211 	ldr	x17, [x16, #3712]
    3308:	913a0210 	add	x16, x16, #0xe80
    330c:	d61f0220 	br	x17

0000000000003310 <dcngettext@plt>:
    3310:	900000d0 	adrp	x16, 1b000 <putsgent@@Base+0x12670>
    3314:	f9474611 	ldr	x17, [x16, #3720]
    3318:	913a2210 	add	x16, x16, #0xe88
    331c:	d61f0220 	br	x17

0000000000003320 <strcpy@plt>:
    3320:	900000d0 	adrp	x16, 1b000 <putsgent@@Base+0x12670>
    3324:	f9474a11 	ldr	x17, [x16, #3728]
    3328:	913a4210 	add	x16, x16, #0xe90
    332c:	d61f0220 	br	x17

0000000000003330 <chroot@plt>:
    3330:	900000d0 	adrp	x16, 1b000 <putsgent@@Base+0x12670>
    3334:	f9474e11 	ldr	x17, [x16, #3736]
    3338:	913a6210 	add	x16, x16, #0xe98
    333c:	d61f0220 	br	x17

0000000000003340 <endpwent@plt>:
    3340:	900000d0 	adrp	x16, 1b000 <putsgent@@Base+0x12670>
    3344:	f9475211 	ldr	x17, [x16, #3744]
    3348:	913a8210 	add	x16, x16, #0xea0
    334c:	d61f0220 	br	x17

0000000000003350 <getaddrinfo@plt>:
    3350:	900000d0 	adrp	x16, 1b000 <putsgent@@Base+0x12670>
    3354:	f9475611 	ldr	x17, [x16, #3752]
    3358:	913aa210 	add	x16, x16, #0xea8
    335c:	d61f0220 	br	x17

0000000000003360 <read@plt>:
    3360:	900000d0 	adrp	x16, 1b000 <putsgent@@Base+0x12670>
    3364:	f9475a11 	ldr	x17, [x16, #3760]
    3368:	913ac210 	add	x16, x16, #0xeb0
    336c:	d61f0220 	br	x17

0000000000003370 <tcsetattr@plt>:
    3370:	900000d0 	adrp	x16, 1b000 <putsgent@@Base+0x12670>
    3374:	f9475e11 	ldr	x17, [x16, #3768]
    3378:	913ae210 	add	x16, x16, #0xeb8
    337c:	d61f0220 	br	x17

0000000000003380 <pam_get_item@plt>:
    3380:	900000d0 	adrp	x16, 1b000 <putsgent@@Base+0x12670>
    3384:	f9476211 	ldr	x17, [x16, #3776]
    3388:	913b0210 	add	x16, x16, #0xec0
    338c:	d61f0220 	br	x17

0000000000003390 <isatty@plt>:
    3390:	900000d0 	adrp	x16, 1b000 <putsgent@@Base+0x12670>
    3394:	f9476611 	ldr	x17, [x16, #3784]
    3398:	913b2210 	add	x16, x16, #0xec8
    339c:	d61f0220 	br	x17

00000000000033a0 <gethostname@plt>:
    33a0:	900000d0 	adrp	x16, 1b000 <putsgent@@Base+0x12670>
    33a4:	f9476a11 	ldr	x17, [x16, #3792]
    33a8:	913b4210 	add	x16, x16, #0xed0
    33ac:	d61f0220 	br	x17

00000000000033b0 <setsid@plt>:
    33b0:	900000d0 	adrp	x16, 1b000 <putsgent@@Base+0x12670>
    33b4:	f9476e11 	ldr	x17, [x16, #3800]
    33b8:	913b6210 	add	x16, x16, #0xed8
    33bc:	d61f0220 	br	x17

00000000000033c0 <dcgettext@plt>:
    33c0:	900000d0 	adrp	x16, 1b000 <putsgent@@Base+0x12670>
    33c4:	f9477211 	ldr	x17, [x16, #3808]
    33c8:	913b8210 	add	x16, x16, #0xee0
    33cc:	d61f0220 	br	x17

00000000000033d0 <pam_acct_mgmt@plt>:
    33d0:	900000d0 	adrp	x16, 1b000 <putsgent@@Base+0x12670>
    33d4:	f9477611 	ldr	x17, [x16, #3816]
    33d8:	913ba210 	add	x16, x16, #0xee8
    33dc:	d61f0220 	br	x17

00000000000033e0 <__isoc99_sscanf@plt>:
    33e0:	900000d0 	adrp	x16, 1b000 <putsgent@@Base+0x12670>
    33e4:	f9477a11 	ldr	x17, [x16, #3824]
    33e8:	913bc210 	add	x16, x16, #0xef0
    33ec:	d61f0220 	br	x17

00000000000033f0 <strncpy@plt>:
    33f0:	900000d0 	adrp	x16, 1b000 <putsgent@@Base+0x12670>
    33f4:	f9477e11 	ldr	x17, [x16, #3832]
    33f8:	913be210 	add	x16, x16, #0xef8
    33fc:	d61f0220 	br	x17

0000000000003400 <audit_log_user_message@plt>:
    3400:	900000d0 	adrp	x16, 1b000 <putsgent@@Base+0x12670>
    3404:	f9478211 	ldr	x17, [x16, #3840]
    3408:	913c0210 	add	x16, x16, #0xf00
    340c:	d61f0220 	br	x17

0000000000003410 <audit_log_acct_message@plt>:
    3410:	900000d0 	adrp	x16, 1b000 <putsgent@@Base+0x12670>
    3414:	f9478611 	ldr	x17, [x16, #3848]
    3418:	913c2210 	add	x16, x16, #0xf08
    341c:	d61f0220 	br	x17

0000000000003420 <strcspn@plt>:
    3420:	900000d0 	adrp	x16, 1b000 <putsgent@@Base+0x12670>
    3424:	f9478a11 	ldr	x17, [x16, #3856]
    3428:	913c4210 	add	x16, x16, #0xf10
    342c:	d61f0220 	br	x17

0000000000003430 <__assert_fail@plt>:
    3430:	900000d0 	adrp	x16, 1b000 <putsgent@@Base+0x12670>
    3434:	f9478e11 	ldr	x17, [x16, #3864]
    3438:	913c6210 	add	x16, x16, #0xf18
    343c:	d61f0220 	br	x17

0000000000003440 <__errno_location@plt>:
    3440:	900000d0 	adrp	x16, 1b000 <putsgent@@Base+0x12670>
    3444:	f9479211 	ldr	x17, [x16, #3872]
    3448:	913c8210 	add	x16, x16, #0xf20
    344c:	d61f0220 	br	x17

0000000000003450 <pam_setcred@plt>:
    3450:	900000d0 	adrp	x16, 1b000 <putsgent@@Base+0x12670>
    3454:	f9479611 	ldr	x17, [x16, #3880]
    3458:	913ca210 	add	x16, x16, #0xf28
    345c:	d61f0220 	br	x17

0000000000003460 <pam_authenticate@plt>:
    3460:	900000d0 	adrp	x16, 1b000 <putsgent@@Base+0x12670>
    3464:	f9479a11 	ldr	x17, [x16, #3888]
    3468:	913cc210 	add	x16, x16, #0xf30
    346c:	d61f0220 	br	x17

0000000000003470 <getenv@plt>:
    3470:	900000d0 	adrp	x16, 1b000 <putsgent@@Base+0x12670>
    3474:	f9479e11 	ldr	x17, [x16, #3896]
    3478:	913ce210 	add	x16, x16, #0xf38
    347c:	d61f0220 	br	x17

0000000000003480 <pam_open_session@plt>:
    3480:	900000d0 	adrp	x16, 1b000 <putsgent@@Base+0x12670>
    3484:	f947a211 	ldr	x17, [x16, #3904]
    3488:	913d0210 	add	x16, x16, #0xf40
    348c:	d61f0220 	br	x17

0000000000003490 <alarm@plt>:
    3490:	900000d0 	adrp	x16, 1b000 <putsgent@@Base+0x12670>
    3494:	f947a611 	ldr	x17, [x16, #3912]
    3498:	913d2210 	add	x16, x16, #0xf48
    349c:	d61f0220 	br	x17

00000000000034a0 <fchown@plt>:
    34a0:	900000d0 	adrp	x16, 1b000 <putsgent@@Base+0x12670>
    34a4:	f947aa11 	ldr	x17, [x16, #3920]
    34a8:	913d4210 	add	x16, x16, #0xf50
    34ac:	d61f0220 	br	x17

00000000000034b0 <fgets@plt>:
    34b0:	900000d0 	adrp	x16, 1b000 <putsgent@@Base+0x12670>
    34b4:	f947ae11 	ldr	x17, [x16, #3928]
    34b8:	913d6210 	add	x16, x16, #0xf58
    34bc:	d61f0220 	br	x17

00000000000034c0 <__open_2@plt>:
    34c0:	900000d0 	adrp	x16, 1b000 <putsgent@@Base+0x12670>
    34c4:	f947b211 	ldr	x17, [x16, #3936]
    34c8:	913d8210 	add	x16, x16, #0xf60
    34cc:	d61f0220 	br	x17

00000000000034d0 <ioctl@plt>:
    34d0:	900000d0 	adrp	x16, 1b000 <putsgent@@Base+0x12670>
    34d4:	f947b611 	ldr	x17, [x16, #3944]
    34d8:	913da210 	add	x16, x16, #0xf68
    34dc:	d61f0220 	br	x17

00000000000034e0 <setlocale@plt>:
    34e0:	900000d0 	adrp	x16, 1b000 <putsgent@@Base+0x12670>
    34e4:	f947ba11 	ldr	x17, [x16, #3952]
    34e8:	913dc210 	add	x16, x16, #0xf70
    34ec:	d61f0220 	br	x17

00000000000034f0 <ferror@plt>:
    34f0:	900000d0 	adrp	x16, 1b000 <putsgent@@Base+0x12670>
    34f4:	f947be11 	ldr	x17, [x16, #3960]
    34f8:	913de210 	add	x16, x16, #0xf78
    34fc:	d61f0220 	br	x17

Disassembly of section .text:

0000000000003500 <setsgent@@Base-0x50e8>:
    3500:	d284ae0c 	mov	x12, #0x2570                	// #9584
    3504:	cb2c63ff 	sub	sp, sp, x12
    3508:	900000c2 	adrp	x2, 1b000 <putsgent@@Base+0x12670>
    350c:	a9017bfd 	stp	x29, x30, [sp, #16]
    3510:	910043fd 	add	x29, sp, #0x10
    3514:	f947f842 	ldr	x2, [x2, #4080]
    3518:	a90253f3 	stp	x19, x20, [sp, #32]
    351c:	2a0003f3 	mov	w19, w0
    3520:	900000c0 	adrp	x0, 1b000 <putsgent@@Base+0x12670>
    3524:	aa0103f4 	mov	x20, x1
    3528:	a9035bf5 	stp	x21, x22, [sp, #48]
    352c:	f947e400 	ldr	x0, [x0, #4040]
    3530:	a90463f7 	stp	x23, x24, [sp, #64]
    3534:	f9400001 	ldr	x1, [x0]
    3538:	f912b7e1 	str	x1, [sp, #9576]
    353c:	d2800001 	mov	x1, #0x0                   	// #0
    3540:	b0000020 	adrp	x0, 8000 <ferror@plt+0x4b10>
    3544:	913a4016 	add	x22, x0, #0xe90
    3548:	910803e0 	add	x0, sp, #0x200
    354c:	a9056bf9 	stp	x25, x26, [sp, #80]
    3550:	a90673fb 	stp	x27, x28, [sp, #96]
    3554:	a930fc1f 	stp	xzr, xzr, [x0, #-248]
    3558:	a931fc1f 	stp	xzr, xzr, [x0, #-232]
    355c:	a932fc1f 	stp	xzr, xzr, [x0, #-216]
    3560:	9108c3e0 	add	x0, sp, #0x230
    3564:	f90053ff 	str	xzr, [sp, #160]
    3568:	a930fc1f 	stp	xzr, xzr, [x0, #-248]
    356c:	a931fc1f 	stp	xzr, xzr, [x0, #-232]
    3570:	a932fc1f 	stp	xzr, xzr, [x0, #-216]
    3574:	a90effff 	stp	xzr, xzr, [sp, #232]
    3578:	a90fffff 	stp	xzr, xzr, [sp, #248]
    357c:	f9400055 	ldr	x21, [x2]
    3580:	94000884 	bl	5790 <ferror@plt+0x22a0>
    3584:	d0000020 	adrp	x0, 9000 <putsgent@@Base+0x670>
    3588:	91254001 	add	x1, x0, #0x950
    358c:	528000c0 	mov	w0, #0x6                   	// #6
    3590:	97ffffd4 	bl	34e0 <setlocale@plt>
    3594:	b0000020 	adrp	x0, 8000 <ferror@plt+0x4b10>
    3598:	9139e001 	add	x1, x0, #0xe78
    359c:	aa1603e0 	mov	x0, x22
    35a0:	97fffeb4 	bl	3070 <bindtextdomain@plt>
    35a4:	aa1603e0 	mov	x0, x22
    35a8:	97ffff22 	bl	3230 <textdomain@plt>
    35ac:	9400077d 	bl	53a0 <ferror@plt+0x1eb0>
    35b0:	97fffe48 	bl	2ed0 <getuid@plt>
    35b4:	7100001f 	cmp	w0, #0x0
    35b8:	f9400280 	ldr	x0, [x20]
    35bc:	1a9f17e2 	cset	w2, eq  // eq = none
    35c0:	b00000c1 	adrp	x1, 1c000 <putsgent@@Base+0x13670>
    35c4:	9116e021 	add	x1, x1, #0x5b8
    35c8:	39040022 	strb	w2, [x1, #256]
    35cc:	9400070f 	bl	5208 <ferror@plt+0x1d18>
    35d0:	900000c1 	adrp	x1, 1b000 <putsgent@@Base+0x12670>
    35d4:	f947d836 	ldr	x22, [x1, #4016]
    35d8:	f90002c0 	str	x0, [x22]
    35dc:	97fffe25 	bl	2e70 <geteuid@plt>
    35e0:	3500ac00 	cbnz	w0, 4b60 <ferror@plt+0x1670>
    35e4:	7100067f 	cmp	w19, #0x1
    35e8:	5400034d 	b.le	3650 <ferror@plt+0x160>
    35ec:	51000a60 	sub	w0, w19, #0x2
    35f0:	91004298 	add	x24, x20, #0x10
    35f4:	91002297 	add	x23, x20, #0x8
    35f8:	8b204f18 	add	x24, x24, w0, uxtw #3
    35fc:	1400000c 	b	362c <ferror@plt+0x13c>
    3600:	394002c0 	ldrb	w0, [x22]
    3604:	7100b41f 	cmp	w0, #0x2d
    3608:	540000c1 	b.ne	3620 <ferror@plt+0x130>  // b.any
    360c:	394006c0 	ldrb	w0, [x22, #1]
    3610:	7100b41f 	cmp	w0, #0x2d
    3614:	54000061 	b.ne	3620 <ferror@plt+0x130>  // b.any
    3618:	39400ac0 	ldrb	w0, [x22, #2]
    361c:	340001a0 	cbz	w0, 3650 <ferror@plt+0x160>
    3620:	910022f7 	add	x23, x23, #0x8
    3624:	eb1802ff 	cmp	x23, x24
    3628:	54000140 	b.eq	3650 <ferror@plt+0x160>  // b.none
    362c:	f94002f6 	ldr	x22, [x23]
    3630:	394002c0 	ldrb	w0, [x22]
    3634:	7100b41f 	cmp	w0, #0x2d
    3638:	54fffe41 	b.ne	3600 <ferror@plt+0x110>  // b.any
    363c:	aa1603e0 	mov	x0, x22
    3640:	97fffde8 	bl	2de0 <strlen@plt>
    3644:	f100081f 	cmp	x0, #0x2
    3648:	54fffdc9 	b.ls	3600 <ferror@plt+0x110>  // b.plast
    364c:	9400060d 	bl	4e80 <ferror@plt+0x1990>
    3650:	900000d8 	adrp	x24, 1b000 <putsgent@@Base+0x12670>
    3654:	b000003a 	adrp	x26, 8000 <ferror@plt+0x4b10>
    3658:	b00000c0 	adrp	x0, 1c000 <putsgent@@Base+0x13670>
    365c:	913b435a 	add	x26, x26, #0xed0
    3660:	f947d719 	ldr	x25, [x24, #4008]
    3664:	9116e017 	add	x23, x0, #0x5b8
    3668:	52800036 	mov	w22, #0x1                   	// #1
    366c:	d503201f 	nop
    3670:	aa1a03e2 	mov	x2, x26
    3674:	aa1403e1 	mov	x1, x20
    3678:	2a1303e0 	mov	w0, w19
    367c:	97fffe95 	bl	30d0 <getopt@plt>
    3680:	3100041f 	cmn	w0, #0x1
    3684:	540001e0 	b.eq	36c0 <ferror@plt+0x1d0>  // b.none
    3688:	7101a01f 	cmp	w0, #0x68
    368c:	54001860 	b.eq	3998 <ferror@plt+0x4a8>  // b.none
    3690:	540016cc 	b.gt	3968 <ferror@plt+0x478>
    3694:	7101901f 	cmp	w0, #0x64
    3698:	54fffec0 	b.eq	3670 <ferror@plt+0x180>  // b.none
    369c:	7101981f 	cmp	w0, #0x66
    36a0:	54fffd61 	b.ne	364c <ferror@plt+0x15c>  // b.any
    36a4:	aa1a03e2 	mov	x2, x26
    36a8:	aa1403e1 	mov	x1, x20
    36ac:	2a1303e0 	mov	w0, w19
    36b0:	390442f6 	strb	w22, [x23, #272]
    36b4:	97fffe87 	bl	30d0 <getopt@plt>
    36b8:	3100041f 	cmn	w0, #0x1
    36bc:	54fffe61 	b.ne	3688 <ferror@plt+0x198>  // b.any
    36c0:	b00000c0 	adrp	x0, 1c000 <putsgent@@Base+0x13670>
    36c4:	9116e000 	add	x0, x0, #0x5b8
    36c8:	39444801 	ldrb	w1, [x0, #274]
    36cc:	34001701 	cbz	w1, 39ac <ferror@plt+0x4bc>
    36d0:	39444401 	ldrb	w1, [x0, #273]
    36d4:	35fffbc1 	cbnz	w1, 364c <ferror@plt+0x15c>
    36d8:	39444000 	ldrb	w0, [x0, #272]
    36dc:	35fffb80 	cbnz	w0, 364c <ferror@plt+0x15c>
    36e0:	b00000c0 	adrp	x0, 1c000 <putsgent@@Base+0x13670>
    36e4:	9116e000 	add	x0, x0, #0x5b8
    36e8:	39440000 	ldrb	w0, [x0, #256]
    36ec:	3400a700 	cbz	w0, 4bcc <ferror@plt+0x16dc>
    36f0:	900000d6 	adrp	x22, 1b000 <putsgent@@Base+0x12670>
    36f4:	f947dec0 	ldr	x0, [x22, #4024]
    36f8:	b9400000 	ldr	w0, [x0]
    36fc:	6b00027f 	cmp	w19, w0
    3700:	5400028d 	b.le	3750 <ferror@plt+0x260>
    3704:	b00000c1 	adrp	x1, 1c000 <putsgent@@Base+0x13670>
    3708:	9116e038 	add	x24, x1, #0x5b8
    370c:	f9408f01 	ldr	x1, [x24, #280]
    3710:	b500af61 	cbnz	x1, 4cfc <ferror@plt+0x180c>
    3714:	f860da80 	ldr	x0, [x20, w0, sxtw #3]
    3718:	9400104e 	bl	7850 <ferror@plt+0x4360>
    371c:	f9008f00 	str	x0, [x24, #280]
    3720:	f947ded7 	ldr	x23, [x22, #4024]
    3724:	b98002e0 	ldrsw	x0, [x23]
    3728:	f8607a98 	ldr	x24, [x20, x0, lsl #3]
    372c:	aa1803e0 	mov	x0, x24
    3730:	97fffdac 	bl	2de0 <strlen@plt>
    3734:	52800001 	mov	w1, #0x0                   	// #0
    3738:	aa0003e2 	mov	x2, x0
    373c:	aa1803e0 	mov	x0, x24
    3740:	97fffe58 	bl	30a0 <memset@plt>
    3744:	b94002e0 	ldr	w0, [x23]
    3748:	11000400 	add	w0, w0, #0x1
    374c:	b90002e0 	str	w0, [x23]
    3750:	b00000c0 	adrp	x0, 1c000 <putsgent@@Base+0x13670>
    3754:	9116e000 	add	x0, x0, #0x5b8
    3758:	39444801 	ldrb	w1, [x0, #274]
    375c:	340047e1 	cbz	w1, 4058 <ferror@plt+0xb68>
    3760:	f9408c01 	ldr	x1, [x0, #280]
    3764:	b5fff741 	cbnz	x1, 364c <ferror@plt+0x15c>
    3768:	39444000 	ldrb	w0, [x0, #272]
    376c:	35fff700 	cbnz	w0, 364c <ferror@plt+0x15c>
    3770:	52800000 	mov	w0, #0x0                   	// #0
    3774:	97ffff07 	bl	3390 <isatty@plt>
    3778:	34009520 	cbz	w0, 4a1c <ferror@plt+0x152c>
    377c:	52800020 	mov	w0, #0x1                   	// #1
    3780:	97ffff04 	bl	3390 <isatty@plt>
    3784:	340094c0 	cbz	w0, 4a1c <ferror@plt+0x152c>
    3788:	52800040 	mov	w0, #0x2                   	// #2
    378c:	97ffff01 	bl	3390 <isatty@plt>
    3790:	34009460 	cbz	w0, 4a1c <ferror@plt+0x152c>
    3794:	b00000c0 	adrp	x0, 1c000 <putsgent@@Base+0x13670>
    3798:	9116e018 	add	x24, x0, #0x5b8
    379c:	94000d9d 	bl	6e10 <ferror@plt+0x3920>
    37a0:	aa0003e1 	mov	x1, x0
    37a4:	39440300 	ldrb	w0, [x24, #256]
    37a8:	f100003f 	cmp	x1, #0x0
    37ac:	f90043e1 	str	x1, [sp, #128]
    37b0:	1a9f17e1 	cset	w1, eq  // eq = none
    37b4:	52000000 	eor	w0, w0, #0x1
    37b8:	6a00003f 	tst	w1, w0
    37bc:	540095a1 	b.ne	4a70 <ferror@plt+0x1580>  // b.any
    37c0:	52800000 	mov	w0, #0x0                   	// #0
    37c4:	97fffdbb 	bl	2eb0 <ttyname@plt>
    37c8:	f100001f 	cmp	x0, #0x0
    37cc:	9115a3f7 	add	x23, sp, #0x568
    37d0:	b0000021 	adrp	x1, 8000 <ferror@plt+0x4b10>
    37d4:	91396021 	add	x1, x1, #0xe58
    37d8:	9a800021 	csel	x1, x1, x0, eq  // eq = none
    37dc:	d283ffe2 	mov	x2, #0x1fff                	// #8191
    37e0:	aa1703e0 	mov	x0, x23
    37e4:	97ffff03 	bl	33f0 <strncpy@plt>
    37e8:	d2840601 	mov	x1, #0x2030                	// #8240
    37ec:	8b2163e1 	add	x1, sp, x1
    37f0:	39444b00 	ldrb	w0, [x24, #274]
    37f4:	3914dc3f 	strb	wzr, [x1, #1335]
    37f8:	35000060 	cbnz	w0, 3804 <ferror@plt+0x314>
    37fc:	39444700 	ldrb	w0, [x24, #273]
    3800:	340002e0 	cbz	w0, 385c <ferror@plt+0x36c>
    3804:	b00000d9 	adrp	x25, 1c000 <putsgent@@Base+0x13670>
    3808:	b00000c0 	adrp	x0, 1c000 <putsgent@@Base+0x13670>
    380c:	9116e018 	add	x24, x0, #0x5b8
    3810:	b0000020 	adrp	x0, 8000 <ferror@plt+0x4b10>
    3814:	f9401321 	ldr	x1, [x25, #32]
    3818:	913d8000 	add	x0, x0, #0xf60
    381c:	940006eb 	bl	53c8 <ferror@plt+0x1ed8>
    3820:	39444b00 	ldrb	w0, [x24, #274]
    3824:	340001c0 	cbz	w0, 385c <ferror@plt+0x36c>
    3828:	f9408f00 	ldr	x0, [x24, #280]
    382c:	b5009300 	cbnz	x0, 4a8c <ferror@plt+0x159c>
    3830:	d2800420 	mov	x0, #0x21                  	// #33
    3834:	94000fe9 	bl	77d8 <ferror@plt+0x42e8>
    3838:	aa0003e1 	mov	x1, x0
    383c:	9103a3e3 	add	x3, sp, #0xe8
    3840:	f9401320 	ldr	x0, [x25, #32]
    3844:	d2801004 	mov	x4, #0x80                  	// #128
    3848:	3900803f 	strb	wzr, [x1, #32]
    384c:	d2800402 	mov	x2, #0x20                  	// #32
    3850:	f9008f01 	str	x1, [x24, #280]
    3854:	94000a9b 	bl	62c0 <ferror@plt+0x2dd0>
    3858:	340051e0 	cbz	w0, 4294 <ferror@plt+0xda4>
    385c:	52800a02 	mov	w2, #0x50                  	// #80
    3860:	52800021 	mov	w1, #0x1                   	// #1
    3864:	9102a3f8 	add	x24, sp, #0xa8
    3868:	b0000020 	adrp	x0, 8000 <ferror@plt+0x4b10>
    386c:	913dc000 	add	x0, x0, #0xf70
    3870:	97fffe54 	bl	31c0 <openlog@plt>
    3874:	aa1803e1 	mov	x1, x24
    3878:	52800000 	mov	w0, #0x0                   	// #0
    387c:	97fffdb1 	bl	2f40 <tcgetattr@plt>
    3880:	34004b40 	cbz	w0, 41e8 <ferror@plt+0xcf8>
    3884:	b00000c0 	adrp	x0, 1c000 <putsgent@@Base+0x13670>
    3888:	9116e000 	add	x0, x0, #0x5b8
    388c:	39444c00 	ldrb	w0, [x0, #275]
    3890:	34003ee0 	cbz	w0, 406c <ferror@plt+0xb7c>
    3894:	f94002a0 	ldr	x0, [x21]
    3898:	b4005380 	cbz	x0, 4308 <ferror@plt+0xe18>
    389c:	d503201f 	nop
    38a0:	d2800001 	mov	x1, #0x0                   	// #0
    38a4:	940006c9 	bl	53c8 <ferror@plt+0x1ed8>
    38a8:	f8408ea0 	ldr	x0, [x21, #8]!
    38ac:	b5ffffa0 	cbnz	x0, 38a0 <ferror@plt+0x3b0>
    38b0:	3943a3e0 	ldrb	w0, [sp, #232]
    38b4:	35003e00 	cbnz	w0, 4074 <ferror@plt+0xb84>
    38b8:	b00000c0 	adrp	x0, 1c000 <putsgent@@Base+0x13670>
    38bc:	9116e000 	add	x0, x0, #0x5b8
    38c0:	39444c00 	ldrb	w0, [x0, #275]
    38c4:	34004f00 	cbz	w0, 42a4 <ferror@plt+0xdb4>
    38c8:	b0000035 	adrp	x21, 8000 <ferror@plt+0x4b10>
    38cc:	913f62b5 	add	x21, x21, #0xfd8
    38d0:	aa1503e0 	mov	x0, x21
    38d4:	97fffee7 	bl	3470 <getenv@plt>
    38d8:	aa0003e1 	mov	x1, x0
    38dc:	b4000060 	cbz	x0, 38e8 <ferror@plt+0x3f8>
    38e0:	aa1503e0 	mov	x0, x21
    38e4:	940006b9 	bl	53c8 <ferror@plt+0x1ed8>
    38e8:	b0000035 	adrp	x21, 8000 <ferror@plt+0x4b10>
    38ec:	913f82b5 	add	x21, x21, #0xfe0
    38f0:	aa1503e0 	mov	x0, x21
    38f4:	97fffedf 	bl	3470 <getenv@plt>
    38f8:	aa0003e1 	mov	x1, x0
    38fc:	b4000060 	cbz	x0, 3908 <ferror@plt+0x418>
    3900:	aa1503e0 	mov	x0, x21
    3904:	940006b1 	bl	53c8 <ferror@plt+0x1ed8>
    3908:	b0000035 	adrp	x21, 8000 <ferror@plt+0x4b10>
    390c:	913fa2b5 	add	x21, x21, #0xfe8
    3910:	aa1503e0 	mov	x0, x21
    3914:	97fffed7 	bl	3470 <getenv@plt>
    3918:	aa0003e1 	mov	x1, x0
    391c:	b4000060 	cbz	x0, 3928 <ferror@plt+0x438>
    3920:	aa1503e0 	mov	x0, x21
    3924:	940006a9 	bl	53c8 <ferror@plt+0x1ed8>
    3928:	f947ded6 	ldr	x22, [x22, #4024]
    392c:	b94002c0 	ldr	w0, [x22]
    3930:	6b13001f 	cmp	w0, w19
    3934:	5400452b 	b.lt	41d8 <ferror@plt+0xce8>  // b.tstop
    3938:	b00000c0 	adrp	x0, 1c000 <putsgent@@Base+0x13670>
    393c:	9116e000 	add	x0, x0, #0x5b8
    3940:	39444801 	ldrb	w1, [x0, #274]
    3944:	350033c1 	cbnz	w1, 3fbc <ferror@plt+0xacc>
    3948:	39444400 	ldrb	w0, [x0, #273]
    394c:	35003380 	cbnz	w0, 3fbc <ferror@plt+0xacc>
    3950:	f94043e1 	ldr	x1, [sp, #128]
    3954:	b4000401 	cbz	x1, 39d4 <ferror@plt+0x4e4>
    3958:	39413020 	ldrb	w0, [x1, #76]
    395c:	340003c0 	cbz	w0, 39d4 <ferror@plt+0x4e4>
    3960:	91013026 	add	x6, x1, #0x4c
    3964:	14000198 	b	3fc4 <ferror@plt+0xad4>
    3968:	7101c01f 	cmp	w0, #0x70
    396c:	54000061 	b.ne	3978 <ferror@plt+0x488>  // b.any
    3970:	39044ef6 	strb	w22, [x23, #275]
    3974:	17ffff3f 	b	3670 <ferror@plt+0x180>
    3978:	7101c81f 	cmp	w0, #0x72
    397c:	54ffe681 	b.ne	364c <ferror@plt+0x15c>  // b.any
    3980:	f947d700 	ldr	x0, [x24, #4008]
    3984:	b00000c1 	adrp	x1, 1c000 <putsgent@@Base+0x13670>
    3988:	39044af6 	strb	w22, [x23, #274]
    398c:	f9400000 	ldr	x0, [x0]
    3990:	f9001020 	str	x0, [x1, #32]
    3994:	17ffff37 	b	3670 <ferror@plt+0x180>
    3998:	b00000c0 	adrp	x0, 1c000 <putsgent@@Base+0x13670>
    399c:	390446f6 	strb	w22, [x23, #273]
    39a0:	f9400321 	ldr	x1, [x25]
    39a4:	f9001001 	str	x1, [x0, #32]
    39a8:	17ffff32 	b	3670 <ferror@plt+0x180>
    39ac:	39444001 	ldrb	w1, [x0, #272]
    39b0:	35ffe981 	cbnz	w1, 36e0 <ferror@plt+0x1f0>
    39b4:	39444400 	ldrb	w0, [x0, #273]
    39b8:	35ffe940 	cbnz	w0, 36e0 <ferror@plt+0x1f0>
    39bc:	900000d6 	adrp	x22, 1b000 <putsgent@@Base+0x12670>
    39c0:	f947dec0 	ldr	x0, [x22, #4024]
    39c4:	b9400000 	ldr	w0, [x0]
    39c8:	6b00027f 	cmp	w19, w0
    39cc:	54ffed2d 	b.le	3770 <ferror@plt+0x280>
    39d0:	17ffff4d 	b	3704 <ferror@plt+0x214>
    39d4:	910da3fb 	add	x27, sp, #0x368
    39d8:	d0000024 	adrp	x4, 9000 <putsgent@@Base+0x670>
    39dc:	d2804003 	mov	x3, #0x200                 	// #512
    39e0:	aa1b03e0 	mov	x0, x27
    39e4:	91004084 	add	x4, x4, #0x10
    39e8:	aa1703e5 	mov	x5, x23
    39ec:	aa0303e1 	mov	x1, x3
    39f0:	52800022 	mov	w2, #0x1                   	// #1
    39f4:	97fffd67 	bl	2f90 <__snprintf_chk@plt>
    39f8:	b00000c0 	adrp	x0, 1c000 <putsgent@@Base+0x13670>
    39fc:	910283fa 	add	x26, sp, #0xa0
    3a00:	9116e014 	add	x20, x0, #0x5b8
    3a04:	9105a3e0 	add	x0, sp, #0x168
    3a08:	d2800016 	mov	x22, #0x0                   	// #0
    3a0c:	f9004fe0 	str	x0, [sp, #152]
    3a10:	91048280 	add	x0, x20, #0x120
    3a14:	f90047e0 	str	x0, [sp, #136]
    3a18:	52800781 	mov	w1, #0x3c                  	// #60
    3a1c:	d0000020 	adrp	x0, 9000 <putsgent@@Base+0x670>
    3a20:	91008000 	add	x0, x0, #0x20
    3a24:	94001155 	bl	7f78 <ferror@plt+0x4a88>
    3a28:	2a0003f3 	mov	w19, w0
    3a2c:	d0000020 	adrp	x0, 9000 <putsgent@@Base+0x670>
    3a30:	528000a2 	mov	w2, #0x5                   	// #5
    3a34:	9100c001 	add	x1, x0, #0x30
    3a38:	d2800000 	mov	x0, #0x0                   	// #0
    3a3c:	97fffe61 	bl	33c0 <dcgettext@plt>
    3a40:	2a1303e5 	mov	w5, w19
    3a44:	aa0003e4 	mov	x4, x0
    3a48:	d2802003 	mov	x3, #0x100                 	// #256
    3a4c:	aa1403e0 	mov	x0, x20
    3a50:	aa0303e1 	mov	x1, x3
    3a54:	52800022 	mov	w2, #0x1                   	// #1
    3a58:	97fffd4e 	bl	2f90 <__snprintf_chk@plt>
    3a5c:	b0000000 	adrp	x0, 4000 <ferror@plt+0xb10>
    3a60:	91392001 	add	x1, x0, #0xe48
    3a64:	528001c0 	mov	w0, #0xe                   	// #14
    3a68:	97fffd46 	bl	2f80 <signal@plt>
    3a6c:	35002a33 	cbnz	w19, 3fb0 <ferror@plt+0xac0>
    3a70:	900000c0 	adrp	x0, 1b000 <putsgent@@Base+0x12670>
    3a74:	52800061 	mov	w1, #0x3                   	// #3
    3a78:	f947ec02 	ldr	x2, [x0, #4056]
    3a7c:	900000c0 	adrp	x0, 1b000 <putsgent@@Base+0x12670>
    3a80:	f947f803 	ldr	x3, [x0, #4080]
    3a84:	d0000020 	adrp	x0, 9000 <putsgent@@Base+0x670>
    3a88:	f9400042 	ldr	x2, [x2]
    3a8c:	91016000 	add	x0, x0, #0x58
    3a90:	f9000062 	str	x2, [x3]
    3a94:	94001139 	bl	7f78 <ferror@plt+0x4a88>
    3a98:	b90077e0 	str	w0, [sp, #116]
    3a9c:	f9408e81 	ldr	x1, [x20, #280]
    3aa0:	b00000c0 	adrp	x0, 1c000 <putsgent@@Base+0x13670>
    3aa4:	91042283 	add	x3, x20, #0x108
    3aa8:	91004002 	add	x2, x0, #0x10
    3aac:	b0000020 	adrp	x0, 8000 <ferror@plt+0x4b10>
    3ab0:	913dc000 	add	x0, x0, #0xf70
    3ab4:	97fffcdb 	bl	2e20 <pam_start@plt>
    3ab8:	35007fc0 	cbnz	w0, 4ab0 <ferror@plt+0x15c0>
    3abc:	b00000d9 	adrp	x25, 1c000 <putsgent@@Base+0x13670>
    3ac0:	52800081 	mov	w1, #0x4                   	// #4
    3ac4:	f9408680 	ldr	x0, [x20, #264]
    3ac8:	f9401322 	ldr	x2, [x25, #32]
    3acc:	97fffced 	bl	2e80 <pam_set_item@plt>
    3ad0:	350056e0 	cbnz	w0, 45ac <ferror@plt+0x10bc>
    3ad4:	f9408680 	ldr	x0, [x20, #264]
    3ad8:	aa1703e2 	mov	x2, x23
    3adc:	52800061 	mov	w1, #0x3                   	// #3
    3ae0:	97fffce8 	bl	2e80 <pam_set_item@plt>
    3ae4:	35005640 	cbnz	w0, 45ac <ferror@plt+0x10bc>
    3ae8:	39444280 	ldrb	w0, [x20, #272]
    3aec:	35001de0 	cbnz	w0, 3ea8 <ferror@plt+0x9b8>
    3af0:	f9404ff5 	ldr	x21, [sp, #152]
    3af4:	d2802001 	mov	x1, #0x100                 	// #256
    3af8:	aa1503e0 	mov	x0, x21
    3afc:	97fffe29 	bl	33a0 <gethostname@plt>
    3b00:	350027a0 	cbnz	w0, 3ff4 <ferror@plt+0xb04>
    3b04:	528000a2 	mov	w2, #0x5                   	// #5
    3b08:	9109a3f3 	add	x19, sp, #0x268
    3b0c:	d0000021 	adrp	x1, 9000 <putsgent@@Base+0x670>
    3b10:	d2800000 	mov	x0, #0x0                   	// #0
    3b14:	9102c021 	add	x1, x1, #0xb0
    3b18:	97fffe2a 	bl	33c0 <dcgettext@plt>
    3b1c:	d2802003 	mov	x3, #0x100                 	// #256
    3b20:	aa0003e4 	mov	x4, x0
    3b24:	aa0303e1 	mov	x1, x3
    3b28:	aa1303e0 	mov	x0, x19
    3b2c:	aa1503e5 	mov	x5, x21
    3b30:	52800022 	mov	w2, #0x1                   	// #1
    3b34:	97fffd17 	bl	2f90 <__snprintf_chk@plt>
    3b38:	f9408680 	ldr	x0, [x20, #264]
    3b3c:	aa1303e2 	mov	x2, x19
    3b40:	52800121 	mov	w1, #0x9                   	// #9
    3b44:	97fffccf 	bl	2e80 <pam_set_item@plt>
    3b48:	35005320 	cbnz	w0, 45ac <ferror@plt+0x10bc>
    3b4c:	aa1a03e0 	mov	x0, x26
    3b50:	940004fa 	bl	4f38 <ferror@plt+0x1a48>
    3b54:	f94053e0 	ldr	x0, [sp, #160]
    3b58:	b40026c0 	cbz	x0, 4030 <ferror@plt+0xb40>
    3b5c:	39400001 	ldrb	w1, [x0]
    3b60:	f9408680 	ldr	x0, [x20, #264]
    3b64:	340025e1 	cbz	w1, 4020 <ferror@plt+0xb30>
    3b68:	900000c1 	adrp	x1, 1b000 <putsgent@@Base+0x12670>
    3b6c:	52800015 	mov	w21, #0x0                   	// #0
    3b70:	f947f421 	ldr	x1, [x1, #4072]
    3b74:	f9004be1 	str	x1, [sp, #144]
    3b78:	1400005b 	b	3ce4 <ferror@plt+0x7f4>
    3b7c:	d2800001 	mov	x1, #0x0                   	// #0
    3b80:	528000c0 	mov	w0, #0x6                   	// #6
    3b84:	97fffe57 	bl	34e0 <setlocale@plt>
    3b88:	b4001320 	cbz	x0, 3dec <ferror@plt+0x8fc>
    3b8c:	97fffd6d 	bl	3140 <strdup@plt>
    3b90:	aa0003fc 	mov	x28, x0
    3b94:	b40012c0 	cbz	x0, 3dec <ferror@plt+0x8fc>
    3b98:	b0000021 	adrp	x1, 8000 <ferror@plt+0x4b10>
    3b9c:	528000c0 	mov	w0, #0x6                   	// #6
    3ba0:	91394021 	add	x1, x1, #0xe50
    3ba4:	97fffe4f 	bl	34e0 <setlocale@plt>
    3ba8:	f9408680 	ldr	x0, [x20, #264]
    3bac:	2a1803e1 	mov	w1, w24
    3bb0:	97fffd0c 	bl	2fe0 <pam_strerror@plt>
    3bb4:	aa0003e6 	mov	x6, x0
    3bb8:	aa1303e5 	mov	x5, x19
    3bbc:	aa1b03e4 	mov	x4, x27
    3bc0:	2a1503e3 	mov	w3, w21
    3bc4:	52800021 	mov	w1, #0x1                   	// #1
    3bc8:	528000a0 	mov	w0, #0x5                   	// #5
    3bcc:	d0000022 	adrp	x2, 9000 <putsgent@@Base+0x670>
    3bd0:	9105e042 	add	x2, x2, #0x178
    3bd4:	97fffdc7 	bl	32f0 <__syslog_chk@plt>
    3bd8:	aa1c03e1 	mov	x1, x28
    3bdc:	528000c0 	mov	w0, #0x6                   	// #6
    3be0:	97fffe40 	bl	34e0 <setlocale@plt>
    3be4:	aa1c03e0 	mov	x0, x28
    3be8:	97fffdb2 	bl	32b0 <free@plt>
    3bec:	b40011b6 	cbz	x22, 3e20 <ferror@plt+0x930>
    3bf0:	d0000038 	adrp	x24, 9000 <putsgent@@Base+0x670>
    3bf4:	9103c300 	add	x0, x24, #0xf0
    3bf8:	94001086 	bl	7e10 <ferror@plt+0x4920>
    3bfc:	72001c1f 	tst	w0, #0xff
    3c00:	54002e01 	b.ne	41c0 <ferror@plt+0xcd0>  // b.any
    3c04:	97fffd07 	bl	3020 <audit_open@plt>
    3c08:	f90003f7 	str	x23, [sp]
    3c0c:	900000c1 	adrp	x1, 1b000 <putsgent@@Base+0x12670>
    3c10:	b9000bff 	str	wzr, [sp, #8]
    3c14:	f9401326 	ldr	x6, [x25, #32]
    3c18:	aa1303e4 	mov	x4, x19
    3c1c:	f947f428 	ldr	x8, [x1, #4072]
    3c20:	b0000021 	adrp	x1, 8000 <ferror@plt+0x4b10>
    3c24:	d2800007 	mov	x7, #0x0                   	// #0
    3c28:	913dc023 	add	x3, x1, #0xf70
    3c2c:	12800005 	mov	w5, #0xffffffff            	// #-1
    3c30:	d2800002 	mov	x2, #0x0                   	// #0
    3c34:	b9000100 	str	w0, [x8]
    3c38:	52808b01 	mov	w1, #0x458                 	// #1112
    3c3c:	f9003fe8 	str	x8, [sp, #120]
    3c40:	97fffdf4 	bl	3410 <audit_log_acct_message@plt>
    3c44:	f9403fe8 	ldr	x8, [sp, #120]
    3c48:	b9400100 	ldr	w0, [x8]
    3c4c:	97fffd49 	bl	3170 <close@plt>
    3c50:	d0000020 	adrp	x0, 9000 <putsgent@@Base+0x670>
    3c54:	91254000 	add	x0, x0, #0x950
    3c58:	97fffd6e 	bl	3210 <puts@plt>
    3c5c:	d0000021 	adrp	x1, 9000 <putsgent@@Base+0x670>
    3c60:	910d0021 	add	x1, x1, #0x340
    3c64:	528000a2 	mov	w2, #0x5                   	// #5
    3c68:	d2800000 	mov	x0, #0x0                   	// #0
    3c6c:	97fffdd5 	bl	33c0 <dcgettext@plt>
    3c70:	97fffd68 	bl	3210 <puts@plt>
    3c74:	9103c300 	add	x0, x24, #0xf0
    3c78:	94001066 	bl	7e10 <ferror@plt+0x4920>
    3c7c:	72001c1f 	tst	w0, #0xff
    3c80:	54001061 	b.ne	3e8c <ferror@plt+0x99c>  // b.any
    3c84:	d0000020 	adrp	x0, 9000 <putsgent@@Base+0x670>
    3c88:	91072000 	add	x0, x0, #0x1c8
    3c8c:	94001051 	bl	7dd0 <ferror@plt+0x48e0>
    3c90:	b4000180 	cbz	x0, 3cc0 <ferror@plt+0x7d0>
    3c94:	f9401322 	ldr	x2, [x25, #32]
    3c98:	aa1703e1 	mov	x1, x23
    3c9c:	f94043e3 	ldr	x3, [sp, #128]
    3ca0:	aa1303e0 	mov	x0, x19
    3ca4:	94000cb3 	bl	6f70 <ferror@plt+0x3a80>
    3ca8:	aa0003f8 	mov	x24, x0
    3cac:	aa1803e1 	mov	x1, x24
    3cb0:	aa1303e0 	mov	x0, x19
    3cb4:	9400086f 	bl	5e70 <ferror@plt+0x2980>
    3cb8:	aa1803e0 	mov	x0, x24
    3cbc:	97fffd7d 	bl	32b0 <free@plt>
    3cc0:	b94077e0 	ldr	w0, [sp, #116]
    3cc4:	6b15001f 	cmp	w0, w21
    3cc8:	540024a9 	b.ls	415c <ferror@plt+0xc6c>  // b.plast
    3ccc:	f9408680 	ldr	x0, [x20, #264]
    3cd0:	d2800002 	mov	x2, #0x0                   	// #0
    3cd4:	52800041 	mov	w1, #0x2                   	// #2
    3cd8:	97fffc6a 	bl	2e80 <pam_set_item@plt>
    3cdc:	35004680 	cbnz	w0, 45ac <ferror@plt+0x10bc>
    3ce0:	f9408680 	ldr	x0, [x20, #264]
    3ce4:	52800001 	mov	w1, #0x0                   	// #0
    3ce8:	97fffdde 	bl	3460 <pam_authenticate@plt>
    3cec:	2a0003f8 	mov	w24, w0
    3cf0:	aa1a03e0 	mov	x0, x26
    3cf4:	94000491 	bl	4f38 <ferror@plt+0x1a48>
    3cf8:	f94053e0 	ldr	x0, [sp, #160]
    3cfc:	110006b5 	add	w21, w21, #0x1
    3d00:	940004ec 	bl	50b0 <ferror@plt+0x1bc0>
    3d04:	aa0003f3 	mov	x19, x0
    3d08:	71002f1f 	cmp	w24, #0xb
    3d0c:	54001be0 	b.eq	4088 <ferror@plt+0xb98>  // b.none
    3d10:	71006b1f 	cmp	w24, #0x1a
    3d14:	54004a60 	b.eq	4660 <ferror@plt+0x1170>  // b.none
    3d18:	35fff338 	cbnz	w24, 3b7c <ferror@plt+0x68c>
    3d1c:	b4000c36 	cbz	x22, 3ea0 <ferror@plt+0x9b0>
    3d20:	d0000038 	adrp	x24, 9000 <putsgent@@Base+0x670>
    3d24:	9103c300 	add	x0, x24, #0xf0
    3d28:	9400103a 	bl	7e10 <ferror@plt+0x4920>
    3d2c:	72001c1f 	tst	w0, #0xff
    3d30:	54000b80 	b.eq	3ea0 <ferror@plt+0x9b0>  // b.none
    3d34:	b94012c0 	ldr	w0, [x22, #16]
    3d38:	52800002 	mov	w2, #0x0                   	// #0
    3d3c:	f94047e1 	ldr	x1, [sp, #136]
    3d40:	94000776 	bl	5b18 <ferror@plt+0x2628>
    3d44:	35000ae0 	cbnz	w0, 3ea0 <ferror@plt+0x9b0>
    3d48:	d2800001 	mov	x1, #0x0                   	// #0
    3d4c:	528000c0 	mov	w0, #0x6                   	// #6
    3d50:	97fffde4 	bl	34e0 <setlocale@plt>
    3d54:	b4001720 	cbz	x0, 4038 <ferror@plt+0xb48>
    3d58:	97fffcfa 	bl	3140 <strdup@plt>
    3d5c:	f9003fe0 	str	x0, [sp, #120]
    3d60:	b40016c0 	cbz	x0, 4038 <ferror@plt+0xb48>
    3d64:	b0000021 	adrp	x1, 8000 <ferror@plt+0x4b10>
    3d68:	528000c0 	mov	w0, #0x6                   	// #6
    3d6c:	91394021 	add	x1, x1, #0xe50
    3d70:	97fffddc 	bl	34e0 <setlocale@plt>
    3d74:	aa1b03e4 	mov	x4, x27
    3d78:	aa1303e3 	mov	x3, x19
    3d7c:	52800021 	mov	w1, #0x1                   	// #1
    3d80:	52800040 	mov	w0, #0x2                   	// #2
    3d84:	d0000022 	adrp	x2, 9000 <putsgent@@Base+0x670>
    3d88:	91068042 	add	x2, x2, #0x1a0
    3d8c:	97fffd59 	bl	32f0 <__syslog_chk@plt>
    3d90:	f9403fe5 	ldr	x5, [sp, #120]
    3d94:	528000c0 	mov	w0, #0x6                   	// #6
    3d98:	aa0503e1 	mov	x1, x5
    3d9c:	97fffdd1 	bl	34e0 <setlocale@plt>
    3da0:	f9403fe5 	ldr	x5, [sp, #120]
    3da4:	aa0503e0 	mov	x0, x5
    3da8:	97fffd42 	bl	32b0 <free@plt>
    3dac:	97fffc9d 	bl	3020 <audit_open@plt>
    3db0:	f9404bfc 	ldr	x28, [sp, #144]
    3db4:	b0000021 	adrp	x1, 8000 <ferror@plt+0x4b10>
    3db8:	f9401326 	ldr	x6, [x25, #32]
    3dbc:	913dc023 	add	x3, x1, #0xf70
    3dc0:	b9000380 	str	w0, [x28]
    3dc4:	aa1303e4 	mov	x4, x19
    3dc8:	f90003f7 	str	x23, [sp]
    3dcc:	d2800007 	mov	x7, #0x0                   	// #0
    3dd0:	b9000bff 	str	wzr, [sp, #8]
    3dd4:	12800005 	mov	w5, #0xffffffff            	// #-1
    3dd8:	d2800002 	mov	x2, #0x0                   	// #0
    3ddc:	52808b01 	mov	w1, #0x458                 	// #1112
    3de0:	97fffd8c 	bl	3410 <audit_log_acct_message@plt>
    3de4:	b9400380 	ldr	w0, [x28]
    3de8:	17ffff99 	b	3c4c <ferror@plt+0x75c>
    3dec:	f9408680 	ldr	x0, [x20, #264]
    3df0:	2a1803e1 	mov	w1, w24
    3df4:	97fffc7b 	bl	2fe0 <pam_strerror@plt>
    3df8:	aa0003e6 	mov	x6, x0
    3dfc:	d0000022 	adrp	x2, 9000 <putsgent@@Base+0x670>
    3e00:	aa1303e5 	mov	x5, x19
    3e04:	9105e042 	add	x2, x2, #0x178
    3e08:	aa1b03e4 	mov	x4, x27
    3e0c:	2a1503e3 	mov	w3, w21
    3e10:	52800021 	mov	w1, #0x1                   	// #1
    3e14:	528000a0 	mov	w0, #0x5                   	// #5
    3e18:	97fffd36 	bl	32f0 <__syslog_chk@plt>
    3e1c:	b5ffeeb6 	cbnz	x22, 3bf0 <ferror@plt+0x700>
    3e20:	97fffc80 	bl	3020 <audit_open@plt>
    3e24:	f90003f7 	str	x23, [sp]
    3e28:	900000c1 	adrp	x1, 1b000 <putsgent@@Base+0x12670>
    3e2c:	b9000bff 	str	wzr, [sp, #8]
    3e30:	f9401326 	ldr	x6, [x25, #32]
    3e34:	aa1303e4 	mov	x4, x19
    3e38:	f947f438 	ldr	x24, [x1, #4072]
    3e3c:	b0000021 	adrp	x1, 8000 <ferror@plt+0x4b10>
    3e40:	d2800007 	mov	x7, #0x0                   	// #0
    3e44:	913dc023 	add	x3, x1, #0xf70
    3e48:	12800005 	mov	w5, #0xffffffff            	// #-1
    3e4c:	d2800002 	mov	x2, #0x0                   	// #0
    3e50:	b9000300 	str	w0, [x24]
    3e54:	52808b01 	mov	w1, #0x458                 	// #1112
    3e58:	97fffd6e 	bl	3410 <audit_log_acct_message@plt>
    3e5c:	b9400300 	ldr	w0, [x24]
    3e60:	97fffcc4 	bl	3170 <close@plt>
    3e64:	d0000020 	adrp	x0, 9000 <putsgent@@Base+0x670>
    3e68:	91254000 	add	x0, x0, #0x950
    3e6c:	97fffce9 	bl	3210 <puts@plt>
    3e70:	d0000021 	adrp	x1, 9000 <putsgent@@Base+0x670>
    3e74:	910d0021 	add	x1, x1, #0x340
    3e78:	528000a2 	mov	w2, #0x5                   	// #5
    3e7c:	d2800000 	mov	x0, #0x0                   	// #0
    3e80:	97fffd50 	bl	33c0 <dcgettext@plt>
    3e84:	97fffce3 	bl	3210 <puts@plt>
    3e88:	17ffff7f 	b	3c84 <ferror@plt+0x794>
    3e8c:	b94012c0 	ldr	w0, [x22, #16]
    3e90:	aa1703e1 	mov	x1, x23
    3e94:	f94047e2 	ldr	x2, [sp, #136]
    3e98:	9400068c 	bl	58c8 <ferror@plt+0x23d8>
    3e9c:	17ffff7a 	b	3c84 <ferror@plt+0x794>
    3ea0:	52800000 	mov	w0, #0x0                   	// #0
    3ea4:	97fffd7b 	bl	3490 <alarm@plt>
    3ea8:	f9408680 	ldr	x0, [x20, #264]
    3eac:	52800001 	mov	w1, #0x0                   	// #0
    3eb0:	97fffd48 	bl	33d0 <pam_acct_mgmt@plt>
    3eb4:	7100301f 	cmp	w0, #0xc
    3eb8:	54000740 	b.eq	3fa0 <ferror@plt+0xab0>  // b.none
    3ebc:	35005420 	cbnz	w0, 4940 <ferror@plt+0x1450>
    3ec0:	aa1a03e0 	mov	x0, x26
    3ec4:	9400041d 	bl	4f38 <ferror@plt+0x1a48>
    3ec8:	f94053e0 	ldr	x0, [sp, #160]
    3ecc:	f9408693 	ldr	x19, [x20, #264]
    3ed0:	94000886 	bl	60e8 <ferror@plt+0x2bf8>
    3ed4:	72001c1f 	tst	w0, #0xff
    3ed8:	52900001 	mov	w1, #0x8000                	// #32768
    3edc:	aa1303e0 	mov	x0, x19
    3ee0:	1a9f1021 	csel	w1, w1, wzr, ne  // ne = any
    3ee4:	97fffd67 	bl	3480 <pam_open_session@plt>
    3ee8:	350052c0 	cbnz	w0, 4940 <ferror@plt+0x1450>
    3eec:	aa1a03e0 	mov	x0, x26
    3ef0:	94000412 	bl	4f38 <ferror@plt+0x1a48>
    3ef4:	f9408e80 	ldr	x0, [x20, #280]
    3ef8:	b4000040 	cbz	x0, 3f00 <ferror@plt+0xa10>
    3efc:	97fffced 	bl	32b0 <free@plt>
    3f00:	f94053e0 	ldr	x0, [sp, #160]
    3f04:	94000e53 	bl	7850 <ferror@plt+0x4360>
    3f08:	f9008e80 	str	x0, [x20, #280]
    3f0c:	94000469 	bl	50b0 <ferror@plt+0x1bc0>
    3f10:	aa0003f3 	mov	x19, x0
    3f14:	f9408e80 	ldr	x0, [x20, #280]
    3f18:	94000cf8 	bl	72f8 <ferror@plt+0x3e08>
    3f1c:	aa0003f6 	mov	x22, x0
    3f20:	b4006a00 	cbz	x0, 4c60 <ferror@plt+0x1770>
    3f24:	94000957 	bl	6480 <ferror@plt+0x2f90>
    3f28:	350057a0 	cbnz	w0, 4a1c <ferror@plt+0x152c>
    3f2c:	f9408680 	ldr	x0, [x20, #264]
    3f30:	52800041 	mov	w1, #0x2                   	// #2
    3f34:	97fffd47 	bl	3450 <pam_setcred@plt>
    3f38:	2a0003f3 	mov	w19, w0
    3f3c:	350033a0 	cbnz	w0, 45b0 <ferror@plt+0x10c0>
    3f40:	f9408e81 	ldr	x1, [x20, #280]
    3f44:	b4006661 	cbz	x1, 4c10 <ferror@plt+0x1720>
    3f48:	97fffd52 	bl	3490 <alarm@plt>
    3f4c:	d0000020 	adrp	x0, 9000 <putsgent@@Base+0x670>
    3f50:	91088000 	add	x0, x0, #0x220
    3f54:	97fffd47 	bl	3470 <getenv@plt>
    3f58:	b40000a0 	cbz	x0, 3f6c <ferror@plt+0xa7c>
    3f5c:	d0000020 	adrp	x0, 9000 <putsgent@@Base+0x670>
    3f60:	d2800001 	mov	x1, #0x0                   	// #0
    3f64:	9108a000 	add	x0, x0, #0x228
    3f68:	94000518 	bl	53c8 <ferror@plt+0x1ed8>
    3f6c:	f94016c1 	ldr	x1, [x22, #40]
    3f70:	39400020 	ldrb	w0, [x1]
    3f74:	7100a81f 	cmp	w0, #0x2a
    3f78:	54001ce1 	b.ne	4314 <ferror@plt+0xe24>  // b.any
    3f7c:	91000421 	add	x1, x1, #0x1
    3f80:	aa1603e0 	mov	x0, x22
    3f84:	f90016c1 	str	x1, [x22, #40]
    3f88:	94000ade 	bl	6b00 <ferror@plt+0x3610>
    3f8c:	97fffced 	bl	3340 <endpwent@plt>
    3f90:	97fffbe4 	bl	2f20 <endgrent@plt>
    3f94:	97fffca3 	bl	3220 <endspent@plt>
    3f98:	940011a6 	bl	8630 <endsgent@@Base>
    3f9c:	17fffe9f 	b	3a18 <ferror@plt+0x528>
    3fa0:	f9408680 	ldr	x0, [x20, #264]
    3fa4:	52800401 	mov	w1, #0x20                  	// #32
    3fa8:	97fffbee 	bl	2f60 <pam_chauthtok@plt>
    3fac:	17ffffc4 	b	3ebc <ferror@plt+0x9cc>
    3fb0:	2a1303e0 	mov	w0, w19
    3fb4:	97fffd37 	bl	3490 <alarm@plt>
    3fb8:	17fffeae 	b	3a70 <ferror@plt+0x580>
    3fbc:	b00000c0 	adrp	x0, 1c000 <putsgent@@Base+0x13670>
    3fc0:	f9401006 	ldr	x6, [x0, #32]
    3fc4:	394000c0 	ldrb	w0, [x6]
    3fc8:	34ffd060 	cbz	w0, 39d4 <ferror@plt+0x4e4>
    3fcc:	910da3fb 	add	x27, sp, #0x368
    3fd0:	d2804003 	mov	x3, #0x200                 	// #512
    3fd4:	aa1b03e0 	mov	x0, x27
    3fd8:	aa0303e1 	mov	x1, x3
    3fdc:	aa1703e5 	mov	x5, x23
    3fe0:	b0000024 	adrp	x4, 8000 <ferror@plt+0x4b10>
    3fe4:	52800022 	mov	w2, #0x1                   	// #1
    3fe8:	913fc084 	add	x4, x4, #0xff0
    3fec:	97fffbe9 	bl	2f90 <__snprintf_chk@plt>
    3ff0:	17fffe82 	b	39f8 <ferror@plt+0x508>
    3ff4:	9109a3f3 	add	x19, sp, #0x268
    3ff8:	528000a2 	mov	w2, #0x5                   	// #5
    3ffc:	d0000021 	adrp	x1, 9000 <putsgent@@Base+0x670>
    4000:	d2800000 	mov	x0, #0x0                   	// #0
    4004:	91030021 	add	x1, x1, #0xc0
    4008:	97fffcee 	bl	33c0 <dcgettext@plt>
    400c:	d2802002 	mov	x2, #0x100                 	// #256
    4010:	aa0003e1 	mov	x1, x0
    4014:	aa1303e0 	mov	x0, x19
    4018:	97fffcf6 	bl	33f0 <strncpy@plt>
    401c:	17fffec7 	b	3b38 <ferror@plt+0x648>
    4020:	d2800002 	mov	x2, #0x0                   	// #0
    4024:	52800041 	mov	w1, #0x2                   	// #2
    4028:	97fffb96 	bl	2e80 <pam_set_item@plt>
    402c:	35002c00 	cbnz	w0, 45ac <ferror@plt+0x10bc>
    4030:	f9408680 	ldr	x0, [x20, #264]
    4034:	17fffecd 	b	3b68 <ferror@plt+0x678>
    4038:	aa1b03e4 	mov	x4, x27
    403c:	aa1303e3 	mov	x3, x19
    4040:	b0000022 	adrp	x2, 9000 <putsgent@@Base+0x670>
    4044:	52800021 	mov	w1, #0x1                   	// #1
    4048:	91068042 	add	x2, x2, #0x1a0
    404c:	52800040 	mov	w0, #0x2                   	// #2
    4050:	97fffca8 	bl	32f0 <__syslog_chk@plt>
    4054:	17ffff56 	b	3dac <ferror@plt+0x8bc>
    4058:	39444001 	ldrb	w1, [x0, #272]
    405c:	34ffb8a1 	cbz	w1, 3770 <ferror@plt+0x280>
    4060:	f9408c00 	ldr	x0, [x0, #280]
    4064:	b5ffb860 	cbnz	x0, 3770 <ferror@plt+0x280>
    4068:	94000386 	bl	4e80 <ferror@plt+0x1990>
    406c:	3943a3e0 	ldrb	w0, [sp, #232]
    4070:	340011a0 	cbz	w0, 42a4 <ferror@plt+0xdb4>
    4074:	9103a3e1 	add	x1, sp, #0xe8
    4078:	90000020 	adrp	x0, 8000 <ferror@plt+0x4b10>
    407c:	913f4000 	add	x0, x0, #0xfd0
    4080:	940004d2 	bl	53c8 <ferror@plt+0x1ed8>
    4084:	17fffe11 	b	38c8 <ferror@plt+0x3d8>
    4088:	d2800001 	mov	x1, #0x0                   	// #0
    408c:	528000c0 	mov	w0, #0x6                   	// #6
    4090:	97fffd14 	bl	34e0 <setlocale@plt>
    4094:	b4000ee0 	cbz	x0, 4270 <ferror@plt+0xd80>
    4098:	97fffc2a 	bl	3140 <strdup@plt>
    409c:	aa0003f4 	mov	x20, x0
    40a0:	b4000e80 	cbz	x0, 4270 <ferror@plt+0xd80>
    40a4:	90000021 	adrp	x1, 8000 <ferror@plt+0x4b10>
    40a8:	528000c0 	mov	w0, #0x6                   	// #6
    40ac:	91394021 	add	x1, x1, #0xe50
    40b0:	97fffd0c 	bl	34e0 <setlocale@plt>
    40b4:	aa1303e5 	mov	x5, x19
    40b8:	aa1b03e4 	mov	x4, x27
    40bc:	2a1503e3 	mov	w3, w21
    40c0:	52800021 	mov	w1, #0x1                   	// #1
    40c4:	528000a0 	mov	w0, #0x5                   	// #5
    40c8:	b0000022 	adrp	x2, 9000 <putsgent@@Base+0x670>
    40cc:	91032042 	add	x2, x2, #0xc8
    40d0:	97fffc88 	bl	32f0 <__syslog_chk@plt>
    40d4:	aa1403e1 	mov	x1, x20
    40d8:	528000c0 	mov	w0, #0x6                   	// #6
    40dc:	97fffd01 	bl	34e0 <setlocale@plt>
    40e0:	aa1403e0 	mov	x0, x20
    40e4:	97fffc73 	bl	32b0 <free@plt>
    40e8:	b40000d6 	cbz	x22, 4100 <ferror@plt+0xc10>
    40ec:	b0000020 	adrp	x0, 9000 <putsgent@@Base+0x670>
    40f0:	9103c000 	add	x0, x0, #0xf0
    40f4:	94000f47 	bl	7e10 <ferror@plt+0x4920>
    40f8:	72001c1f 	tst	w0, #0xff
    40fc:	54000f81 	b.ne	42ec <ferror@plt+0xdfc>  // b.any
    4100:	f00000a3 	adrp	x3, 1b000 <putsgent@@Base+0x12670>
    4104:	900000c0 	adrp	x0, 1c000 <putsgent@@Base+0x13670>
    4108:	528000a2 	mov	w2, #0x5                   	// #5
    410c:	9116e013 	add	x19, x0, #0x5b8
    4110:	f947d063 	ldr	x3, [x3, #4000]
    4114:	b0000021 	adrp	x1, 9000 <putsgent@@Base+0x670>
    4118:	d2800000 	mov	x0, #0x0                   	// #0
    411c:	91040021 	add	x1, x1, #0x100
    4120:	f9400074 	ldr	x20, [x3]
    4124:	97fffca7 	bl	33c0 <dcgettext@plt>
    4128:	2a1503e3 	mov	w3, w21
    412c:	aa0003e2 	mov	x2, x0
    4130:	52800021 	mov	w1, #0x1                   	// #1
    4134:	aa1403e0 	mov	x0, x20
    4138:	97fffc42 	bl	3240 <__fprintf_chk@plt>
    413c:	f9408660 	ldr	x0, [x19, #264]
    4140:	52800001 	mov	w1, #0x0                   	// #0
    4144:	97fffc53 	bl	3290 <pam_close_session@plt>
    4148:	2a0003e1 	mov	w1, w0
    414c:	f9408660 	ldr	x0, [x19, #264]
    4150:	97fffb94 	bl	2fa0 <pam_end@plt>
    4154:	52800000 	mov	w0, #0x0                   	// #0
    4158:	97fffb2e 	bl	2e10 <exit@plt>
    415c:	d2800001 	mov	x1, #0x0                   	// #0
    4160:	528000c0 	mov	w0, #0x6                   	// #6
    4164:	97fffcdf 	bl	34e0 <setlocale@plt>
    4168:	b4000b00 	cbz	x0, 42c8 <ferror@plt+0xdd8>
    416c:	97fffbf5 	bl	3140 <strdup@plt>
    4170:	aa0003f4 	mov	x20, x0
    4174:	b4000aa0 	cbz	x0, 42c8 <ferror@plt+0xdd8>
    4178:	90000021 	adrp	x1, 8000 <ferror@plt+0x4b10>
    417c:	528000c0 	mov	w0, #0x6                   	// #6
    4180:	91394021 	add	x1, x1, #0xe50
    4184:	97fffcd7 	bl	34e0 <setlocale@plt>
    4188:	aa1303e5 	mov	x5, x19
    418c:	aa1b03e4 	mov	x4, x27
    4190:	2a1503e3 	mov	w3, w21
    4194:	52800021 	mov	w1, #0x1                   	// #1
    4198:	528000a0 	mov	w0, #0x5                   	// #5
    419c:	b0000022 	adrp	x2, 9000 <putsgent@@Base+0x670>
    41a0:	91032042 	add	x2, x2, #0xc8
    41a4:	97fffc53 	bl	32f0 <__syslog_chk@plt>
    41a8:	aa1403e1 	mov	x1, x20
    41ac:	528000c0 	mov	w0, #0x6                   	// #6
    41b0:	97fffccc 	bl	34e0 <setlocale@plt>
    41b4:	aa1403e0 	mov	x0, x20
    41b8:	97fffc3e 	bl	32b0 <free@plt>
    41bc:	17ffffd1 	b	4100 <ferror@plt+0xc10>
    41c0:	b94012c0 	ldr	w0, [x22, #16]
    41c4:	52800022 	mov	w2, #0x1                   	// #1
    41c8:	f94047e1 	ldr	x1, [sp, #136]
    41cc:	94000653 	bl	5b18 <ferror@plt+0x2628>
    41d0:	35ffd1a0 	cbnz	w0, 3c04 <ferror@plt+0x714>
    41d4:	17fffedd 	b	3d48 <ferror@plt+0x858>
    41d8:	8b20ce81 	add	x1, x20, w0, sxtw #3
    41dc:	4b000260 	sub	w0, w19, w0
    41e0:	94000504 	bl	55f0 <ferror@plt+0x2100>
    41e4:	17fffdd5 	b	3938 <ferror@plt+0x448>
    41e8:	b940b7e2 	ldr	w2, [sp, #180]
    41ec:	1280b000 	mov	w0, #0xfffffa7f            	// #-1409
    41f0:	f94057e4 	ldr	x4, [sp, #168]
    41f4:	0a000042 	and	w2, w2, w0
    41f8:	3942efe1 	ldrb	w1, [sp, #187]
    41fc:	90000023 	adrp	x3, 8000 <ferror@plt+0x4b10>
    4200:	d2802000 	mov	x0, #0x100                 	// #256
    4204:	913de07c 	add	x28, x3, #0xf78
    4208:	f2c00080 	movk	x0, #0x4, lsl #32
    420c:	52814363 	mov	w3, #0xa1b                 	// #2587
    4210:	aa000084 	orr	x4, x4, x0
    4214:	2a030042 	orr	w2, w2, w3
    4218:	aa1c03e0 	mov	x0, x28
    421c:	f90057e4 	str	x4, [sp, #168]
    4220:	b900b7e2 	str	w2, [sp, #180]
    4224:	9000003b 	adrp	x27, 8000 <ferror@plt+0x4b10>
    4228:	94000f16 	bl	7e80 <ferror@plt+0x4990>
    422c:	913e237b 	add	x27, x27, #0xf88
    4230:	3942f3e1 	ldrb	w1, [sp, #188]
    4234:	2a0003fa 	mov	w26, w0
    4238:	aa1b03e0 	mov	x0, x27
    423c:	94000f11 	bl	7e80 <ferror@plt+0x4990>
    4240:	3902effa 	strb	w26, [sp, #187]
    4244:	3902f3e0 	strb	w0, [sp, #188]
    4248:	2a0003f9 	mov	w25, w0
    424c:	72185f5f 	tst	w26, #0xffffff00
    4250:	54003ca1 	b.ne	49e4 <ferror@plt+0x14f4>  // b.any
    4254:	72185c1f 	tst	w0, #0xffffff00
    4258:	54004ee1 	b.ne	4c34 <ferror@plt+0x1744>  // b.any
    425c:	aa1803e2 	mov	x2, x24
    4260:	52800001 	mov	w1, #0x0                   	// #0
    4264:	52800000 	mov	w0, #0x0                   	// #0
    4268:	97fffc42 	bl	3370 <tcsetattr@plt>
    426c:	17fffd86 	b	3884 <ferror@plt+0x394>
    4270:	aa1303e5 	mov	x5, x19
    4274:	aa1b03e4 	mov	x4, x27
    4278:	2a1503e3 	mov	w3, w21
    427c:	b0000022 	adrp	x2, 9000 <putsgent@@Base+0x670>
    4280:	52800021 	mov	w1, #0x1                   	// #1
    4284:	91032042 	add	x2, x2, #0xc8
    4288:	528000a0 	mov	w0, #0x5                   	// #5
    428c:	97fffc19 	bl	32f0 <__syslog_chk@plt>
    4290:	17ffff96 	b	40e8 <ferror@plt+0xbf8>
    4294:	f9408f00 	ldr	x0, [x24, #280]
    4298:	97fffc06 	bl	32b0 <free@plt>
    429c:	f9008f1f 	str	xzr, [x24, #280]
    42a0:	17fffd6f 	b	385c <ferror@plt+0x36c>
    42a4:	90000035 	adrp	x21, 8000 <ferror@plt+0x4b10>
    42a8:	913f42b5 	add	x21, x21, #0xfd0
    42ac:	aa1503e0 	mov	x0, x21
    42b0:	97fffc70 	bl	3470 <getenv@plt>
    42b4:	aa0003e1 	mov	x1, x0
    42b8:	b4ffb080 	cbz	x0, 38c8 <ferror@plt+0x3d8>
    42bc:	aa1503e0 	mov	x0, x21
    42c0:	94000442 	bl	53c8 <ferror@plt+0x1ed8>
    42c4:	17fffd81 	b	38c8 <ferror@plt+0x3d8>
    42c8:	aa1303e5 	mov	x5, x19
    42cc:	aa1b03e4 	mov	x4, x27
    42d0:	2a1503e3 	mov	w3, w21
    42d4:	b0000022 	adrp	x2, 9000 <putsgent@@Base+0x670>
    42d8:	52800021 	mov	w1, #0x1                   	// #1
    42dc:	91032042 	add	x2, x2, #0xc8
    42e0:	528000a0 	mov	w0, #0x5                   	// #5
    42e4:	97fffc03 	bl	32f0 <__syslog_chk@plt>
    42e8:	17ffff86 	b	4100 <ferror@plt+0xc10>
    42ec:	b94012c0 	ldr	w0, [x22, #16]
    42f0:	900000c1 	adrp	x1, 1c000 <putsgent@@Base+0x13670>
    42f4:	9116e022 	add	x2, x1, #0x5b8
    42f8:	aa1703e1 	mov	x1, x23
    42fc:	91048042 	add	x2, x2, #0x120
    4300:	94000572 	bl	58c8 <ferror@plt+0x23d8>
    4304:	17ffff7f 	b	4100 <ferror@plt+0xc10>
    4308:	3943a3e0 	ldrb	w0, [sp, #232]
    430c:	34ffade0 	cbz	w0, 38c8 <ferror@plt+0x3d8>
    4310:	17ffff59 	b	4074 <ferror@plt+0xb84>
    4314:	900000c0 	adrp	x0, 1c000 <putsgent@@Base+0x13670>
    4318:	f00000b5 	adrp	x21, 1b000 <putsgent@@Base+0x12670>
    431c:	9116e013 	add	x19, x0, #0x5b8
    4320:	52800034 	mov	w20, #0x1                   	// #1
    4324:	97fffb3f 	bl	3020 <audit_open@plt>
    4328:	f90003f7 	str	x23, [sp]
    432c:	f947f6b5 	ldr	x21, [x21, #4072]
    4330:	90000021 	adrp	x1, 8000 <ferror@plt+0x4b10>
    4334:	f9401326 	ldr	x6, [x25, #32]
    4338:	913dc023 	add	x3, x1, #0xf70
    433c:	f9408e64 	ldr	x4, [x19, #280]
    4340:	b9000bf4 	str	w20, [sp, #8]
    4344:	b90002a0 	str	w0, [x21]
    4348:	d2800007 	mov	x7, #0x0                   	// #0
    434c:	12800005 	mov	w5, #0xffffffff            	// #-1
    4350:	d2800002 	mov	x2, #0x0                   	// #0
    4354:	52808b01 	mov	w1, #0x458                 	// #1112
    4358:	97fffc2e 	bl	3410 <audit_log_acct_message@plt>
    435c:	b94002a0 	ldr	w0, [x21]
    4360:	97fffb84 	bl	3170 <close@plt>
    4364:	aa1603e0 	mov	x0, x22
    4368:	940003b4 	bl	5238 <ferror@plt+0x1d48>
    436c:	d2800021 	mov	x1, #0x1                   	// #1
    4370:	52800040 	mov	w0, #0x2                   	// #2
    4374:	97fffb03 	bl	2f80 <signal@plt>
    4378:	97fffae6 	bl	2f10 <fork@plt>
    437c:	7100001f 	cmp	w0, #0x0
    4380:	54001c0b 	b.lt	4700 <ferror@plt+0x1210>  // b.tstop
    4384:	54000080 	b.eq	4394 <ferror@plt+0xea4>  // b.none
    4388:	d2800000 	mov	x0, #0x0                   	// #0
    438c:	97fffbdd 	bl	3300 <wait@plt>
    4390:	17ffff6b 	b	413c <ferror@plt+0xc4c>
    4394:	97fffb2f 	bl	3050 <getppid@plt>
    4398:	2a0003f3 	mov	w19, w0
    439c:	7100041f 	cmp	w0, #0x1
    43a0:	540024e0 	b.eq	483c <ferror@plt+0x134c>  // b.none
    43a4:	900000c0 	adrp	x0, 1c000 <putsgent@@Base+0x13670>
    43a8:	9116e013 	add	x19, x0, #0x5b8
    43ac:	f9401322 	ldr	x2, [x25, #32]
    43b0:	aa1703e1 	mov	x1, x23
    43b4:	f94043e3 	ldr	x3, [sp, #128]
    43b8:	f9408e60 	ldr	x0, [x19, #280]
    43bc:	94000aed 	bl	6f70 <ferror@plt+0x3a80>
    43c0:	aa0003f4 	mov	x20, x0
    43c4:	94000bb5 	bl	7298 <ferror@plt+0x3da8>
    43c8:	aa1403e0 	mov	x0, x20
    43cc:	97fffbb9 	bl	32b0 <free@plt>
    43d0:	97fffbdc 	bl	3340 <endpwent@plt>
    43d4:	97fffad3 	bl	2f20 <endgrent@plt>
    43d8:	97fffb92 	bl	3220 <endspent@plt>
    43dc:	94001095 	bl	8630 <endsgent@@Base>
    43e0:	aa1603e0 	mov	x0, x22
    43e4:	94000895 	bl	6638 <ferror@plt+0x3148>
    43e8:	350031a0 	cbnz	w0, 4a1c <ferror@plt+0x152c>
    43ec:	aa1603e0 	mov	x0, x22
    43f0:	940008de 	bl	6768 <ferror@plt+0x3278>
    43f4:	f9408660 	ldr	x0, [x19, #264]
    43f8:	97fffb12 	bl	3040 <pam_getenvlist@plt>
    43fc:	aa0003f3 	mov	x19, x0
    4400:	b40000f3 	cbz	x19, 441c <ferror@plt+0xf2c>
    4404:	f9400260 	ldr	x0, [x19]
    4408:	b40000a0 	cbz	x0, 441c <ferror@plt+0xf2c>
    440c:	91002273 	add	x19, x19, #0x8
    4410:	d2800001 	mov	x1, #0x0                   	// #0
    4414:	940003ed 	bl	53c8 <ferror@plt+0x1ed8>
    4418:	17fffffa 	b	4400 <ferror@plt+0xf10>
    441c:	b0000020 	adrp	x0, 9000 <putsgent@@Base+0x670>
    4420:	91254001 	add	x1, x0, #0x950
    4424:	528000c0 	mov	w0, #0x6                   	// #6
    4428:	97fffc2e 	bl	34e0 <setlocale@plt>
    442c:	900000c0 	adrp	x0, 1c000 <putsgent@@Base+0x13670>
    4430:	9116e013 	add	x19, x0, #0x5b8
    4434:	90000020 	adrp	x0, 8000 <ferror@plt+0x4b10>
    4438:	9139e001 	add	x1, x0, #0xe78
    443c:	90000020 	adrp	x0, 8000 <ferror@plt+0x4b10>
    4440:	913a4014 	add	x20, x0, #0xe90
    4444:	aa1403e0 	mov	x0, x20
    4448:	97fffb0a 	bl	3070 <bindtextdomain@plt>
    444c:	aa1403e0 	mov	x0, x20
    4450:	97fffb78 	bl	3230 <textdomain@plt>
    4454:	f9408e60 	ldr	x0, [x19, #280]
    4458:	94000724 	bl	60e8 <ferror@plt+0x2bf8>
    445c:	72001c1f 	tst	w0, #0xff
    4460:	54001941 	b.ne	4788 <ferror@plt+0x1298>  // b.any
    4464:	d2800001 	mov	x1, #0x0                   	// #0
    4468:	b0000020 	adrp	x0, 9000 <putsgent@@Base+0x670>
    446c:	91098000 	add	x0, x0, #0x260
    4470:	940003d6 	bl	53c8 <ferror@plt+0x1ed8>
    4474:	b0000020 	adrp	x0, 9000 <putsgent@@Base+0x670>
    4478:	9103c000 	add	x0, x0, #0xf0
    447c:	94000e65 	bl	7e10 <ferror@plt+0x4920>
    4480:	72001c1f 	tst	w0, #0xff
    4484:	54000080 	b.eq	4494 <ferror@plt+0xfa4>  // b.none
    4488:	79c24260 	ldrsh	w0, [x19, #288]
    448c:	91048274 	add	x20, x19, #0x120
    4490:	35001fe0 	cbnz	w0, 488c <ferror@plt+0x139c>
    4494:	aa1703e0 	mov	x0, x23
    4498:	940009f6 	bl	6c70 <ferror@plt+0x3780>
    449c:	d2800001 	mov	x1, #0x0                   	// #0
    44a0:	52800060 	mov	w0, #0x3                   	// #3
    44a4:	97fffab7 	bl	2f80 <signal@plt>
    44a8:	d2800001 	mov	x1, #0x0                   	// #0
    44ac:	528001e0 	mov	w0, #0xf                   	// #15
    44b0:	97fffab4 	bl	2f80 <signal@plt>
    44b4:	d2800001 	mov	x1, #0x0                   	// #0
    44b8:	528001c0 	mov	w0, #0xe                   	// #14
    44bc:	97fffab1 	bl	2f80 <signal@plt>
    44c0:	d2800001 	mov	x1, #0x0                   	// #0
    44c4:	52800020 	mov	w0, #0x1                   	// #1
    44c8:	97fffaae 	bl	2f80 <signal@plt>
    44cc:	d2800001 	mov	x1, #0x0                   	// #0
    44d0:	52800040 	mov	w0, #0x2                   	// #2
    44d4:	97fffaab 	bl	2f80 <signal@plt>
    44d8:	b94012c0 	ldr	w0, [x22, #16]
    44dc:	35001600 	cbnz	w0, 479c <ferror@plt+0x12ac>
    44e0:	d2800001 	mov	x1, #0x0                   	// #0
    44e4:	528000c0 	mov	w0, #0x6                   	// #6
    44e8:	97fffbfe 	bl	34e0 <setlocale@plt>
    44ec:	b40021c0 	cbz	x0, 4924 <ferror@plt+0x1434>
    44f0:	97fffb14 	bl	3140 <strdup@plt>
    44f4:	aa0003f3 	mov	x19, x0
    44f8:	b4002160 	cbz	x0, 4924 <ferror@plt+0x1434>
    44fc:	90000021 	adrp	x1, 8000 <ferror@plt+0x4b10>
    4500:	528000c0 	mov	w0, #0x6                   	// #6
    4504:	91394021 	add	x1, x1, #0xe50
    4508:	97fffbf6 	bl	34e0 <setlocale@plt>
    450c:	b0000022 	adrp	x2, 9000 <putsgent@@Base+0x670>
    4510:	aa1b03e3 	mov	x3, x27
    4514:	910be042 	add	x2, x2, #0x2f8
    4518:	52800021 	mov	w1, #0x1                   	// #1
    451c:	528000a0 	mov	w0, #0x5                   	// #5
    4520:	97fffb74 	bl	32f0 <__syslog_chk@plt>
    4524:	aa1303e1 	mov	x1, x19
    4528:	528000c0 	mov	w0, #0x6                   	// #6
    452c:	97fffbed 	bl	34e0 <setlocale@plt>
    4530:	aa1303e0 	mov	x0, x19
    4534:	97fffb5f 	bl	32b0 <free@plt>
    4538:	97fffa72 	bl	2f00 <closelog@plt>
    453c:	b0000020 	adrp	x0, 9000 <putsgent@@Base+0x670>
    4540:	910cc000 	add	x0, x0, #0x330
    4544:	94000e23 	bl	7dd0 <ferror@plt+0x48e0>
    4548:	b40016c0 	cbz	x0, 4820 <ferror@plt+0x1330>
    454c:	f00000a1 	adrp	x1, 1b000 <putsgent@@Base+0x12670>
    4550:	f947ec22 	ldr	x2, [x1, #4056]
    4554:	f94016c1 	ldr	x1, [x22, #40]
    4558:	f9400042 	ldr	x2, [x2]
    455c:	94000911 	bl	69a0 <ferror@plt+0x34b0>
    4560:	f00000a1 	adrp	x1, 1b000 <putsgent@@Base+0x12670>
    4564:	7100081f 	cmp	w0, #0x2
    4568:	1a9f17e0 	cset	w0, eq  // eq = none
    456c:	f947e421 	ldr	x1, [x1, #4040]
    4570:	1101f800 	add	w0, w0, #0x7e
    4574:	f952b7e2 	ldr	x2, [sp, #9576]
    4578:	f9400023 	ldr	x3, [x1]
    457c:	eb030042 	subs	x2, x2, x3
    4580:	d2800003 	mov	x3, #0x0                   	// #0
    4584:	54002501 	b.ne	4a24 <ferror@plt+0x1534>  // b.any
    4588:	d284ae0c 	mov	x12, #0x2570                	// #9584
    458c:	a9417bfd 	ldp	x29, x30, [sp, #16]
    4590:	a94253f3 	ldp	x19, x20, [sp, #32]
    4594:	a9435bf5 	ldp	x21, x22, [sp, #48]
    4598:	a94463f7 	ldp	x23, x24, [sp, #64]
    459c:	a9456bf9 	ldp	x25, x26, [sp, #80]
    45a0:	a94673fb 	ldp	x27, x28, [sp, #96]
    45a4:	8b2c63ff 	add	sp, sp, x12
    45a8:	d65f03c0 	ret
    45ac:	2a0003f3 	mov	w19, w0
    45b0:	f00000a2 	adrp	x2, 1b000 <putsgent@@Base+0x12670>
    45b4:	2a1303e1 	mov	w1, w19
    45b8:	f9408680 	ldr	x0, [x20, #264]
    45bc:	f947d042 	ldr	x2, [x2, #4000]
    45c0:	f9400055 	ldr	x21, [x2]
    45c4:	97fffa87 	bl	2fe0 <pam_strerror@plt>
    45c8:	90000022 	adrp	x2, 8000 <ferror@plt+0x4b10>
    45cc:	aa0003e3 	mov	x3, x0
    45d0:	91392042 	add	x2, x2, #0xe48
    45d4:	52800021 	mov	w1, #0x1                   	// #1
    45d8:	aa1503e0 	mov	x0, x21
    45dc:	97fffb19 	bl	3240 <__fprintf_chk@plt>
    45e0:	d2800001 	mov	x1, #0x0                   	// #0
    45e4:	528000c0 	mov	w0, #0x6                   	// #6
    45e8:	97fffbbe 	bl	34e0 <setlocale@plt>
    45ec:	b4000b60 	cbz	x0, 4758 <ferror@plt+0x1268>
    45f0:	97fffad4 	bl	3140 <strdup@plt>
    45f4:	aa0003f5 	mov	x21, x0
    45f8:	b4000b00 	cbz	x0, 4758 <ferror@plt+0x1268>
    45fc:	90000021 	adrp	x1, 8000 <ferror@plt+0x4b10>
    4600:	528000c0 	mov	w0, #0x6                   	// #6
    4604:	91394021 	add	x1, x1, #0xe50
    4608:	97fffbb6 	bl	34e0 <setlocale@plt>
    460c:	f9408680 	ldr	x0, [x20, #264]
    4610:	2a1303e1 	mov	w1, w19
    4614:	97fffa73 	bl	2fe0 <pam_strerror@plt>
    4618:	aa0003e3 	mov	x3, x0
    461c:	52800021 	mov	w1, #0x1                   	// #1
    4620:	52800060 	mov	w0, #0x3                   	// #3
    4624:	b0000022 	adrp	x2, 9000 <putsgent@@Base+0x670>
    4628:	91070042 	add	x2, x2, #0x1c0
    462c:	97fffb31 	bl	32f0 <__syslog_chk@plt>
    4630:	aa1503e1 	mov	x1, x21
    4634:	528000c0 	mov	w0, #0x6                   	// #6
    4638:	97fffbaa 	bl	34e0 <setlocale@plt>
    463c:	aa1503e0 	mov	x0, x21
    4640:	97fffb1c 	bl	32b0 <free@plt>
    4644:	900000c0 	adrp	x0, 1c000 <putsgent@@Base+0x13670>
    4648:	9116e000 	add	x0, x0, #0x5b8
    464c:	2a1303e1 	mov	w1, w19
    4650:	f9408400 	ldr	x0, [x0, #264]
    4654:	97fffa53 	bl	2fa0 <pam_end@plt>
    4658:	52800020 	mov	w0, #0x1                   	// #1
    465c:	97fff9ed 	bl	2e10 <exit@plt>
    4660:	528000a2 	mov	w2, #0x5                   	// #5
    4664:	b0000021 	adrp	x1, 9000 <putsgent@@Base+0x670>
    4668:	d2800000 	mov	x0, #0x0                   	// #0
    466c:	9104a021 	add	x1, x1, #0x128
    4670:	97fffb54 	bl	33c0 <dcgettext@plt>
    4674:	f00000a1 	adrp	x1, 1b000 <putsgent@@Base+0x12670>
    4678:	f947d021 	ldr	x1, [x1, #4000]
    467c:	f9400021 	ldr	x1, [x1]
    4680:	97fff9e0 	bl	2e00 <fputs@plt>
    4684:	d2800001 	mov	x1, #0x0                   	// #0
    4688:	528000c0 	mov	w0, #0x6                   	// #6
    468c:	97fffb95 	bl	34e0 <setlocale@plt>
    4690:	b4000bc0 	cbz	x0, 4808 <ferror@plt+0x1318>
    4694:	97fffaab 	bl	3140 <strdup@plt>
    4698:	aa0003f3 	mov	x19, x0
    469c:	b4000b60 	cbz	x0, 4808 <ferror@plt+0x1318>
    46a0:	90000021 	adrp	x1, 8000 <ferror@plt+0x4b10>
    46a4:	528000c0 	mov	w0, #0x6                   	// #6
    46a8:	91394021 	add	x1, x1, #0xe50
    46ac:	97fffb8d 	bl	34e0 <setlocale@plt>
    46b0:	52800021 	mov	w1, #0x1                   	// #1
    46b4:	52800060 	mov	w0, #0x3                   	// #3
    46b8:	b0000022 	adrp	x2, 9000 <putsgent@@Base+0x670>
    46bc:	91052042 	add	x2, x2, #0x148
    46c0:	97fffb0c 	bl	32f0 <__syslog_chk@plt>
    46c4:	aa1303e1 	mov	x1, x19
    46c8:	528000c0 	mov	w0, #0x6                   	// #6
    46cc:	97fffb85 	bl	34e0 <setlocale@plt>
    46d0:	aa1303e0 	mov	x0, x19
    46d4:	97fffaf7 	bl	32b0 <free@plt>
    46d8:	900000c0 	adrp	x0, 1c000 <putsgent@@Base+0x13670>
    46dc:	9116e013 	add	x19, x0, #0x5b8
    46e0:	52800001 	mov	w1, #0x0                   	// #0
    46e4:	f9408660 	ldr	x0, [x19, #264]
    46e8:	97fffaea 	bl	3290 <pam_close_session@plt>
    46ec:	2a0003e1 	mov	w1, w0
    46f0:	f9408660 	ldr	x0, [x19, #264]
    46f4:	97fffa2b 	bl	2fa0 <pam_end@plt>
    46f8:	52800c60 	mov	w0, #0x63                  	// #99
    46fc:	97fff9c5 	bl	2e10 <exit@plt>
    4700:	f00000a3 	adrp	x3, 1b000 <putsgent@@Base+0x12670>
    4704:	528000a2 	mov	w2, #0x5                   	// #5
    4708:	b0000021 	adrp	x1, 9000 <putsgent@@Base+0x670>
    470c:	d2800000 	mov	x0, #0x0                   	// #0
    4710:	f947d063 	ldr	x3, [x3, #4000]
    4714:	9108c021 	add	x1, x1, #0x230
    4718:	f9400076 	ldr	x22, [x3]
    471c:	97fffb29 	bl	33c0 <dcgettext@plt>
    4720:	f00000a1 	adrp	x1, 1b000 <putsgent@@Base+0x12670>
    4724:	aa0003f5 	mov	x21, x0
    4728:	f947d821 	ldr	x1, [x1, #4016]
    472c:	f9400037 	ldr	x23, [x1]
    4730:	97fffb44 	bl	3440 <__errno_location@plt>
    4734:	b9400000 	ldr	w0, [x0]
    4738:	97fffa86 	bl	3150 <strerror@plt>
    473c:	aa0003e4 	mov	x4, x0
    4740:	aa1703e3 	mov	x3, x23
    4744:	aa1503e2 	mov	x2, x21
    4748:	2a1403e1 	mov	w1, w20
    474c:	aa1603e0 	mov	x0, x22
    4750:	97fffabc 	bl	3240 <__fprintf_chk@plt>
    4754:	17fffe7a 	b	413c <ferror@plt+0xc4c>
    4758:	900000c0 	adrp	x0, 1c000 <putsgent@@Base+0x13670>
    475c:	9116e000 	add	x0, x0, #0x5b8
    4760:	2a1303e1 	mov	w1, w19
    4764:	f9408400 	ldr	x0, [x0, #264]
    4768:	97fffa1e 	bl	2fe0 <pam_strerror@plt>
    476c:	aa0003e3 	mov	x3, x0
    4770:	b0000022 	adrp	x2, 9000 <putsgent@@Base+0x670>
    4774:	52800021 	mov	w1, #0x1                   	// #1
    4778:	91070042 	add	x2, x2, #0x1c0
    477c:	52800060 	mov	w0, #0x3                   	// #3
    4780:	97fffadc 	bl	32f0 <__syslog_chk@plt>
    4784:	17ffffb0 	b	4644 <ferror@plt+0x1154>
    4788:	b0000020 	adrp	x0, 9000 <putsgent@@Base+0x670>
    478c:	d2800001 	mov	x1, #0x0                   	// #0
    4790:	910ba000 	add	x0, x0, #0x2e8
    4794:	9400030d 	bl	53c8 <ferror@plt+0x1ed8>
    4798:	17ffff3f 	b	4494 <ferror@plt+0xfa4>
    479c:	b0000020 	adrp	x0, 9000 <putsgent@@Base+0x670>
    47a0:	910c2000 	add	x0, x0, #0x308
    47a4:	94000d9b 	bl	7e10 <ferror@plt+0x4920>
    47a8:	72001c1f 	tst	w0, #0xff
    47ac:	54ffec60 	b.eq	4538 <ferror@plt+0x1048>  // b.none
    47b0:	d2800001 	mov	x1, #0x0                   	// #0
    47b4:	528000c0 	mov	w0, #0x6                   	// #6
    47b8:	97fffb4a 	bl	34e0 <setlocale@plt>
    47bc:	900000c1 	adrp	x1, 1c000 <putsgent@@Base+0x13670>
    47c0:	9116e021 	add	x1, x1, #0x5b8
    47c4:	f9408c34 	ldr	x20, [x1, #280]
    47c8:	b4001300 	cbz	x0, 4a28 <ferror@plt+0x1538>
    47cc:	97fffa5d 	bl	3140 <strdup@plt>
    47d0:	aa0003f3 	mov	x19, x0
    47d4:	b40012a0 	cbz	x0, 4a28 <ferror@plt+0x1538>
    47d8:	90000021 	adrp	x1, 8000 <ferror@plt+0x4b10>
    47dc:	528000c0 	mov	w0, #0x6                   	// #6
    47e0:	91394021 	add	x1, x1, #0xe50
    47e4:	97fffb3f 	bl	34e0 <setlocale@plt>
    47e8:	aa1b03e4 	mov	x4, x27
    47ec:	aa1403e3 	mov	x3, x20
    47f0:	b0000022 	adrp	x2, 9000 <putsgent@@Base+0x670>
    47f4:	52800021 	mov	w1, #0x1                   	// #1
    47f8:	910c6042 	add	x2, x2, #0x318
    47fc:	528000c0 	mov	w0, #0x6                   	// #6
    4800:	97fffabc 	bl	32f0 <__syslog_chk@plt>
    4804:	17ffff48 	b	4524 <ferror@plt+0x1034>
    4808:	b0000022 	adrp	x2, 9000 <putsgent@@Base+0x670>
    480c:	52800021 	mov	w1, #0x1                   	// #1
    4810:	91052042 	add	x2, x2, #0x148
    4814:	52800060 	mov	w0, #0x3                   	// #3
    4818:	97fffab6 	bl	32f0 <__syslog_chk@plt>
    481c:	17ffffaf 	b	46d8 <ferror@plt+0x11e8>
    4820:	f00000a0 	adrp	x0, 1b000 <putsgent@@Base+0x12670>
    4824:	d2800001 	mov	x1, #0x0                   	// #0
    4828:	f947ec02 	ldr	x2, [x0, #4056]
    482c:	f94016c0 	ldr	x0, [x22, #40]
    4830:	f9400042 	ldr	x2, [x2]
    4834:	9400085b 	bl	69a0 <ferror@plt+0x34b0>
    4838:	17ffff4a 	b	4560 <ferror@plt+0x1070>
    483c:	97fffadd 	bl	33b0 <setsid@plt>
    4840:	2a1303e2 	mov	w2, w19
    4844:	d28a81c1 	mov	x1, #0x540e                	// #21518
    4848:	52800000 	mov	w0, #0x0                   	// #0
    484c:	97fffb21 	bl	34d0 <ioctl@plt>
    4850:	34ffdaa0 	cbz	w0, 43a4 <ferror@plt+0xeb4>
    4854:	f00000a3 	adrp	x3, 1b000 <putsgent@@Base+0x12670>
    4858:	528000a2 	mov	w2, #0x5                   	// #5
    485c:	b0000021 	adrp	x1, 9000 <putsgent@@Base+0x670>
    4860:	d2800000 	mov	x0, #0x0                   	// #0
    4864:	f947d063 	ldr	x3, [x3, #4000]
    4868:	91092021 	add	x1, x1, #0x248
    486c:	f9400074 	ldr	x20, [x3]
    4870:	97fffad4 	bl	33c0 <dcgettext@plt>
    4874:	aa1703e3 	mov	x3, x23
    4878:	aa0003e2 	mov	x2, x0
    487c:	2a1303e1 	mov	w1, w19
    4880:	aa1403e0 	mov	x0, x20
    4884:	97fffa6f 	bl	3240 <__fprintf_chk@plt>
    4888:	17fffec7 	b	43a4 <ferror@plt+0xeb4>
    488c:	aa1403e0 	mov	x0, x20
    4890:	94000546 	bl	5da8 <ferror@plt+0x28b8>
    4894:	79c24660 	ldrsh	w0, [x19, #290]
    4898:	34ffdfe0 	cbz	w0, 4494 <ferror@plt+0xfa4>
    489c:	79c24261 	ldrsh	w1, [x19, #288]
    48a0:	6b00003f 	cmp	w1, w0
    48a4:	54ffdf8b 	b.lt	4494 <ferror@plt+0xfa4>  // b.tstop
    48a8:	b0000021 	adrp	x1, 9000 <putsgent@@Base+0x670>
    48ac:	9109c021 	add	x1, x1, #0x270
    48b0:	528000a2 	mov	w2, #0x5                   	// #5
    48b4:	d2800000 	mov	x0, #0x0                   	// #0
    48b8:	97fffac2 	bl	33c0 <dcgettext@plt>
    48bc:	97fffa55 	bl	3210 <puts@plt>
    48c0:	d2800001 	mov	x1, #0x0                   	// #0
    48c4:	528000c0 	mov	w0, #0x6                   	// #6
    48c8:	97fffb06 	bl	34e0 <setlocale@plt>
    48cc:	b4000be0 	cbz	x0, 4a48 <ferror@plt+0x1558>
    48d0:	97fffa1c 	bl	3140 <strdup@plt>
    48d4:	aa0003f4 	mov	x20, x0
    48d8:	f9408e75 	ldr	x21, [x19, #280]
    48dc:	b4000b60 	cbz	x0, 4a48 <ferror@plt+0x1558>
    48e0:	90000021 	adrp	x1, 8000 <ferror@plt+0x4b10>
    48e4:	528000c0 	mov	w0, #0x6                   	// #6
    48e8:	91394021 	add	x1, x1, #0xe50
    48ec:	97fffafd 	bl	34e0 <setlocale@plt>
    48f0:	79c24264 	ldrsh	w4, [x19, #288]
    48f4:	aa1503e3 	mov	x3, x21
    48f8:	52800021 	mov	w1, #0x1                   	// #1
    48fc:	52800080 	mov	w0, #0x4                   	// #4
    4900:	b0000022 	adrp	x2, 9000 <putsgent@@Base+0x670>
    4904:	910aa042 	add	x2, x2, #0x2a8
    4908:	97fffa7a 	bl	32f0 <__syslog_chk@plt>
    490c:	aa1403e1 	mov	x1, x20
    4910:	528000c0 	mov	w0, #0x6                   	// #6
    4914:	97fffaf3 	bl	34e0 <setlocale@plt>
    4918:	aa1403e0 	mov	x0, x20
    491c:	97fffa65 	bl	32b0 <free@plt>
    4920:	17fffedd 	b	4494 <ferror@plt+0xfa4>
    4924:	aa1b03e3 	mov	x3, x27
    4928:	b0000022 	adrp	x2, 9000 <putsgent@@Base+0x670>
    492c:	52800021 	mov	w1, #0x1                   	// #1
    4930:	910be042 	add	x2, x2, #0x2f8
    4934:	528000a0 	mov	w0, #0x5                   	// #5
    4938:	97fffa6e 	bl	32f0 <__syslog_chk@plt>
    493c:	17fffeff 	b	4538 <ferror@plt+0x1048>
    4940:	2a0003f3 	mov	w19, w0
    4944:	900000c0 	adrp	x0, 1c000 <putsgent@@Base+0x13670>
    4948:	9116e015 	add	x21, x0, #0x5b8
    494c:	f00000a2 	adrp	x2, 1b000 <putsgent@@Base+0x12670>
    4950:	2a1303e1 	mov	w1, w19
    4954:	f947d042 	ldr	x2, [x2, #4000]
    4958:	f94086a0 	ldr	x0, [x21, #264]
    495c:	f9400054 	ldr	x20, [x2]
    4960:	97fff9a0 	bl	2fe0 <pam_strerror@plt>
    4964:	aa0003e3 	mov	x3, x0
    4968:	90000022 	adrp	x2, 8000 <ferror@plt+0x4b10>
    496c:	91392042 	add	x2, x2, #0xe48
    4970:	52800021 	mov	w1, #0x1                   	// #1
    4974:	aa1403e0 	mov	x0, x20
    4978:	97fffa32 	bl	3240 <__fprintf_chk@plt>
    497c:	d2800001 	mov	x1, #0x0                   	// #0
    4980:	528000c0 	mov	w0, #0x6                   	// #6
    4984:	97fffad7 	bl	34e0 <setlocale@plt>
    4988:	b4ffee80 	cbz	x0, 4758 <ferror@plt+0x1268>
    498c:	97fff9ed 	bl	3140 <strdup@plt>
    4990:	aa0003f4 	mov	x20, x0
    4994:	b4ffee20 	cbz	x0, 4758 <ferror@plt+0x1268>
    4998:	90000021 	adrp	x1, 8000 <ferror@plt+0x4b10>
    499c:	528000c0 	mov	w0, #0x6                   	// #6
    49a0:	91394021 	add	x1, x1, #0xe50
    49a4:	97fffacf 	bl	34e0 <setlocale@plt>
    49a8:	f94086a0 	ldr	x0, [x21, #264]
    49ac:	2a1303e1 	mov	w1, w19
    49b0:	97fff98c 	bl	2fe0 <pam_strerror@plt>
    49b4:	aa0003e3 	mov	x3, x0
    49b8:	52800021 	mov	w1, #0x1                   	// #1
    49bc:	52800060 	mov	w0, #0x3                   	// #3
    49c0:	b0000022 	adrp	x2, 9000 <putsgent@@Base+0x670>
    49c4:	91070042 	add	x2, x2, #0x1c0
    49c8:	97fffa4a 	bl	32f0 <__syslog_chk@plt>
    49cc:	aa1403e1 	mov	x1, x20
    49d0:	528000c0 	mov	w0, #0x6                   	// #6
    49d4:	97fffac3 	bl	34e0 <setlocale@plt>
    49d8:	aa1403e0 	mov	x0, x20
    49dc:	97fffa35 	bl	32b0 <free@plt>
    49e0:	17ffff19 	b	4644 <ferror@plt+0x1154>
    49e4:	f00000a3 	adrp	x3, 1b000 <putsgent@@Base+0x12670>
    49e8:	90000021 	adrp	x1, 8000 <ferror@plt+0x4b10>
    49ec:	528000a2 	mov	w2, #0x5                   	// #5
    49f0:	913e6021 	add	x1, x1, #0xf98
    49f4:	f947d063 	ldr	x3, [x3, #4000]
    49f8:	d2800000 	mov	x0, #0x0                   	// #0
    49fc:	f9400073 	ldr	x19, [x3]
    4a00:	97fffa70 	bl	33c0 <dcgettext@plt>
    4a04:	2a1a03e4 	mov	w4, w26
    4a08:	aa1c03e3 	mov	x3, x28
    4a0c:	aa0003e2 	mov	x2, x0
    4a10:	52800021 	mov	w1, #0x1                   	// #1
    4a14:	aa1303e0 	mov	x0, x19
    4a18:	97fffa0a 	bl	3240 <__fprintf_chk@plt>
    4a1c:	52800020 	mov	w0, #0x1                   	// #1
    4a20:	97fff8fc 	bl	2e10 <exit@plt>
    4a24:	97fff9cf 	bl	3160 <__stack_chk_fail@plt>
    4a28:	aa1b03e4 	mov	x4, x27
    4a2c:	aa1403e3 	mov	x3, x20
    4a30:	b0000022 	adrp	x2, 9000 <putsgent@@Base+0x670>
    4a34:	52800021 	mov	w1, #0x1                   	// #1
    4a38:	910c6042 	add	x2, x2, #0x318
    4a3c:	528000c0 	mov	w0, #0x6                   	// #6
    4a40:	97fffa2c 	bl	32f0 <__syslog_chk@plt>
    4a44:	17fffebd 	b	4538 <ferror@plt+0x1048>
    4a48:	900000c0 	adrp	x0, 1c000 <putsgent@@Base+0x13670>
    4a4c:	9116e003 	add	x3, x0, #0x5b8
    4a50:	b0000022 	adrp	x2, 9000 <putsgent@@Base+0x670>
    4a54:	52800021 	mov	w1, #0x1                   	// #1
    4a58:	910aa042 	add	x2, x2, #0x2a8
    4a5c:	52800080 	mov	w0, #0x4                   	// #4
    4a60:	79c24064 	ldrsh	w4, [x3, #288]
    4a64:	f9408c63 	ldr	x3, [x3, #280]
    4a68:	97fffa22 	bl	32f0 <__syslog_chk@plt>
    4a6c:	17fffe8a 	b	4494 <ferror@plt+0xfa4>
    4a70:	90000021 	adrp	x1, 8000 <ferror@plt+0x4b10>
    4a74:	913c6021 	add	x1, x1, #0xf18
    4a78:	528000a2 	mov	w2, #0x5                   	// #5
    4a7c:	d2800000 	mov	x0, #0x0                   	// #0
    4a80:	97fffa50 	bl	33c0 <dcgettext@plt>
    4a84:	97fff9e3 	bl	3210 <puts@plt>
    4a88:	17ffffe5 	b	4a1c <ferror@plt+0x152c>
    4a8c:	b0000023 	adrp	x3, 9000 <putsgent@@Base+0x670>
    4a90:	910d4063 	add	x3, x3, #0x350
    4a94:	90000021 	adrp	x1, 8000 <ferror@plt+0x4b10>
    4a98:	90000020 	adrp	x0, 8000 <ferror@plt+0x4b10>
    4a9c:	91004063 	add	x3, x3, #0x10
    4aa0:	913be021 	add	x1, x1, #0xef8
    4aa4:	913c0000 	add	x0, x0, #0xf00
    4aa8:	52804ee2 	mov	w2, #0x277                 	// #631
    4aac:	97fffa61 	bl	3430 <__assert_fail@plt>
    4ab0:	f00000a3 	adrp	x3, 1b000 <putsgent@@Base+0x12670>
    4ab4:	528000a2 	mov	w2, #0x5                   	// #5
    4ab8:	2a0003f3 	mov	w19, w0
    4abc:	b0000021 	adrp	x1, 9000 <putsgent@@Base+0x670>
    4ac0:	f947d063 	ldr	x3, [x3, #4000]
    4ac4:	9101a021 	add	x1, x1, #0x68
    4ac8:	d2800000 	mov	x0, #0x0                   	// #0
    4acc:	f9400076 	ldr	x22, [x3]
    4ad0:	97fffa3c 	bl	33c0 <dcgettext@plt>
    4ad4:	aa0003f5 	mov	x21, x0
    4ad8:	2a1303e1 	mov	w1, w19
    4adc:	f9408680 	ldr	x0, [x20, #264]
    4ae0:	97fff940 	bl	2fe0 <pam_strerror@plt>
    4ae4:	aa0003e3 	mov	x3, x0
    4ae8:	aa1503e2 	mov	x2, x21
    4aec:	52800021 	mov	w1, #0x1                   	// #1
    4af0:	aa1603e0 	mov	x0, x22
    4af4:	97fff9d3 	bl	3240 <__fprintf_chk@plt>
    4af8:	d2800001 	mov	x1, #0x0                   	// #0
    4afc:	528000c0 	mov	w0, #0x6                   	// #6
    4b00:	97fffa78 	bl	34e0 <setlocale@plt>
    4b04:	b40004c0 	cbz	x0, 4b9c <ferror@plt+0x16ac>
    4b08:	97fff98e 	bl	3140 <strdup@plt>
    4b0c:	aa0003f5 	mov	x21, x0
    4b10:	b4000460 	cbz	x0, 4b9c <ferror@plt+0x16ac>
    4b14:	90000021 	adrp	x1, 8000 <ferror@plt+0x4b10>
    4b18:	528000c0 	mov	w0, #0x6                   	// #6
    4b1c:	91394021 	add	x1, x1, #0xe50
    4b20:	97fffa70 	bl	34e0 <setlocale@plt>
    4b24:	f9408680 	ldr	x0, [x20, #264]
    4b28:	2a1303e1 	mov	w1, w19
    4b2c:	97fff92d 	bl	2fe0 <pam_strerror@plt>
    4b30:	aa0003e3 	mov	x3, x0
    4b34:	52800021 	mov	w1, #0x1                   	// #1
    4b38:	52800060 	mov	w0, #0x3                   	// #3
    4b3c:	b0000022 	adrp	x2, 9000 <putsgent@@Base+0x670>
    4b40:	91024042 	add	x2, x2, #0x90
    4b44:	97fff9eb 	bl	32f0 <__syslog_chk@plt>
    4b48:	aa1503e1 	mov	x1, x21
    4b4c:	528000c0 	mov	w0, #0x6                   	// #6
    4b50:	97fffa64 	bl	34e0 <setlocale@plt>
    4b54:	aa1503e0 	mov	x0, x21
    4b58:	97fff9d6 	bl	32b0 <free@plt>
    4b5c:	17fffee7 	b	46f8 <ferror@plt+0x1208>
    4b60:	f00000a3 	adrp	x3, 1b000 <putsgent@@Base+0x12670>
    4b64:	528000a2 	mov	w2, #0x5                   	// #5
    4b68:	90000021 	adrp	x1, 8000 <ferror@plt+0x4b10>
    4b6c:	d2800000 	mov	x0, #0x0                   	// #0
    4b70:	f947d063 	ldr	x3, [x3, #4000]
    4b74:	913a6021 	add	x1, x1, #0xe98
    4b78:	f9400073 	ldr	x19, [x3]
    4b7c:	97fffa11 	bl	33c0 <dcgettext@plt>
    4b80:	f94002c3 	ldr	x3, [x22]
    4b84:	aa0003e2 	mov	x2, x0
    4b88:	52800021 	mov	w1, #0x1                   	// #1
    4b8c:	aa1303e0 	mov	x0, x19
    4b90:	97fff9ac 	bl	3240 <__fprintf_chk@plt>
    4b94:	52800020 	mov	w0, #0x1                   	// #1
    4b98:	97fff89e 	bl	2e10 <exit@plt>
    4b9c:	900000c0 	adrp	x0, 1c000 <putsgent@@Base+0x13670>
    4ba0:	9116e000 	add	x0, x0, #0x5b8
    4ba4:	2a1303e1 	mov	w1, w19
    4ba8:	f9408400 	ldr	x0, [x0, #264]
    4bac:	97fff90d 	bl	2fe0 <pam_strerror@plt>
    4bb0:	aa0003e3 	mov	x3, x0
    4bb4:	b0000022 	adrp	x2, 9000 <putsgent@@Base+0x670>
    4bb8:	52800021 	mov	w1, #0x1                   	// #1
    4bbc:	91024042 	add	x2, x2, #0x90
    4bc0:	52800060 	mov	w0, #0x3                   	// #3
    4bc4:	97fff9cb 	bl	32f0 <__syslog_chk@plt>
    4bc8:	17fffecc 	b	46f8 <ferror@plt+0x1208>
    4bcc:	f00000a3 	adrp	x3, 1b000 <putsgent@@Base+0x12670>
    4bd0:	528000a2 	mov	w2, #0x5                   	// #5
    4bd4:	90000021 	adrp	x1, 8000 <ferror@plt+0x4b10>
    4bd8:	d2800000 	mov	x0, #0x0                   	// #0
    4bdc:	f947d063 	ldr	x3, [x3, #4000]
    4be0:	913b8021 	add	x1, x1, #0xee0
    4be4:	f9400073 	ldr	x19, [x3]
    4be8:	97fff9f6 	bl	33c0 <dcgettext@plt>
    4bec:	f00000a2 	adrp	x2, 1b000 <putsgent@@Base+0x12670>
    4bf0:	52800021 	mov	w1, #0x1                   	// #1
    4bf4:	f947d843 	ldr	x3, [x2, #4016]
    4bf8:	aa0003e2 	mov	x2, x0
    4bfc:	aa1303e0 	mov	x0, x19
    4c00:	f9400063 	ldr	x3, [x3]
    4c04:	97fff98f 	bl	3240 <__fprintf_chk@plt>
    4c08:	52800020 	mov	w0, #0x1                   	// #1
    4c0c:	97fff881 	bl	2e10 <exit@plt>
    4c10:	b0000023 	adrp	x3, 9000 <putsgent@@Base+0x670>
    4c14:	910d4063 	add	x3, x3, #0x350
    4c18:	90000021 	adrp	x1, 8000 <ferror@plt+0x4b10>
    4c1c:	b0000020 	adrp	x0, 9000 <putsgent@@Base+0x670>
    4c20:	91004063 	add	x3, x3, #0x10
    4c24:	913be021 	add	x1, x1, #0xef8
    4c28:	91082000 	add	x0, x0, #0x208
    4c2c:	52808da2 	mov	w2, #0x46d                 	// #1133
    4c30:	97fffa00 	bl	3430 <__assert_fail@plt>
    4c34:	f00000a3 	adrp	x3, 1b000 <putsgent@@Base+0x12670>
    4c38:	90000021 	adrp	x1, 8000 <ferror@plt+0x4b10>
    4c3c:	528000a2 	mov	w2, #0x5                   	// #5
    4c40:	913e6021 	add	x1, x1, #0xf98
    4c44:	f947d063 	ldr	x3, [x3, #4000]
    4c48:	d2800000 	mov	x0, #0x0                   	// #0
    4c4c:	f9400073 	ldr	x19, [x3]
    4c50:	97fff9dc 	bl	33c0 <dcgettext@plt>
    4c54:	2a1903e4 	mov	w4, w25
    4c58:	aa1b03e3 	mov	x3, x27
    4c5c:	17ffff6c 	b	4a0c <ferror@plt+0x151c>
    4c60:	d2800001 	mov	x1, #0x0                   	// #0
    4c64:	528000c0 	mov	w0, #0x6                   	// #6
    4c68:	97fffa1e 	bl	34e0 <setlocale@plt>
    4c6c:	b4000580 	cbz	x0, 4d1c <ferror@plt+0x182c>
    4c70:	97fff934 	bl	3140 <strdup@plt>
    4c74:	aa0003f4 	mov	x20, x0
    4c78:	b4000520 	cbz	x0, 4d1c <ferror@plt+0x182c>
    4c7c:	90000021 	adrp	x1, 8000 <ferror@plt+0x4b10>
    4c80:	528000c0 	mov	w0, #0x6                   	// #6
    4c84:	91394021 	add	x1, x1, #0xe50
    4c88:	97fffa16 	bl	34e0 <setlocale@plt>
    4c8c:	aa1303e3 	mov	x3, x19
    4c90:	52800021 	mov	w1, #0x1                   	// #1
    4c94:	52800060 	mov	w0, #0x3                   	// #3
    4c98:	b0000022 	adrp	x2, 9000 <putsgent@@Base+0x670>
    4c9c:	91076042 	add	x2, x2, #0x1d8
    4ca0:	97fff994 	bl	32f0 <__syslog_chk@plt>
    4ca4:	aa1403e1 	mov	x1, x20
    4ca8:	528000c0 	mov	w0, #0x6                   	// #6
    4cac:	97fffa0d 	bl	34e0 <setlocale@plt>
    4cb0:	aa1403e0 	mov	x0, x20
    4cb4:	97fff97f 	bl	32b0 <free@plt>
    4cb8:	f00000a3 	adrp	x3, 1b000 <putsgent@@Base+0x12670>
    4cbc:	528000a2 	mov	w2, #0x5                   	// #5
    4cc0:	b0000021 	adrp	x1, 9000 <putsgent@@Base+0x670>
    4cc4:	d2800000 	mov	x0, #0x0                   	// #0
    4cc8:	f947d063 	ldr	x3, [x3, #4000]
    4ccc:	9107c021 	add	x1, x1, #0x1f0
    4cd0:	f9400073 	ldr	x19, [x3]
    4cd4:	97fff9bb 	bl	33c0 <dcgettext@plt>
    4cd8:	900000c1 	adrp	x1, 1c000 <putsgent@@Base+0x13670>
    4cdc:	9116e023 	add	x3, x1, #0x5b8
    4ce0:	aa0003e2 	mov	x2, x0
    4ce4:	52800021 	mov	w1, #0x1                   	// #1
    4ce8:	aa1303e0 	mov	x0, x19
    4cec:	f9408c63 	ldr	x3, [x3, #280]
    4cf0:	97fff954 	bl	3240 <__fprintf_chk@plt>
    4cf4:	52800020 	mov	w0, #0x1                   	// #1
    4cf8:	97fff846 	bl	2e10 <exit@plt>
    4cfc:	b0000023 	adrp	x3, 9000 <putsgent@@Base+0x670>
    4d00:	90000021 	adrp	x1, 8000 <ferror@plt+0x4b10>
    4d04:	90000020 	adrp	x0, 8000 <ferror@plt+0x4b10>
    4d08:	910d4063 	add	x3, x3, #0x350
    4d0c:	913be021 	add	x1, x1, #0xef8
    4d10:	913c0000 	add	x0, x0, #0xf00
    4d14:	52802ca2 	mov	w2, #0x165                 	// #357
    4d18:	97fff9c6 	bl	3430 <__assert_fail@plt>
    4d1c:	aa1303e3 	mov	x3, x19
    4d20:	b0000022 	adrp	x2, 9000 <putsgent@@Base+0x670>
    4d24:	52800021 	mov	w1, #0x1                   	// #1
    4d28:	91076042 	add	x2, x2, #0x1d8
    4d2c:	52800060 	mov	w0, #0x3                   	// #3
    4d30:	97fff970 	bl	32f0 <__syslog_chk@plt>
    4d34:	17ffffe1 	b	4cb8 <ferror@plt+0x17c8>
    4d38:	d280001d 	mov	x29, #0x0                   	// #0
    4d3c:	d280001e 	mov	x30, #0x0                   	// #0
    4d40:	aa0003e5 	mov	x5, x0
    4d44:	f94003e1 	ldr	x1, [sp]
    4d48:	910023e2 	add	x2, sp, #0x8
    4d4c:	910003e6 	mov	x6, sp
    4d50:	f00000a0 	adrp	x0, 1b000 <putsgent@@Base+0x12670>
    4d54:	f947f000 	ldr	x0, [x0, #4064]
    4d58:	f00000a3 	adrp	x3, 1b000 <putsgent@@Base+0x12670>
    4d5c:	f947e863 	ldr	x3, [x3, #4048]
    4d60:	f00000a4 	adrp	x4, 1b000 <putsgent@@Base+0x12670>
    4d64:	f947c484 	ldr	x4, [x4, #3976]
    4d68:	97fff8c6 	bl	3080 <__libc_start_main@plt>
    4d6c:	97fff911 	bl	31b0 <abort@plt>
    4d70:	f00000a0 	adrp	x0, 1b000 <putsgent@@Base+0x12670>
    4d74:	f947e000 	ldr	x0, [x0, #4032]
    4d78:	b4000040 	cbz	x0, 4d80 <ferror@plt+0x1890>
    4d7c:	17fff905 	b	3190 <__gmon_start__@plt>
    4d80:	d65f03c0 	ret
    4d84:	d503201f 	nop
    4d88:	900000c0 	adrp	x0, 1c000 <putsgent@@Base+0x13670>
    4d8c:	9116c000 	add	x0, x0, #0x5b0
    4d90:	900000c1 	adrp	x1, 1c000 <putsgent@@Base+0x13670>
    4d94:	9116c021 	add	x1, x1, #0x5b0
    4d98:	eb00003f 	cmp	x1, x0
    4d9c:	540000c0 	b.eq	4db4 <ferror@plt+0x18c4>  // b.none
    4da0:	f00000a1 	adrp	x1, 1b000 <putsgent@@Base+0x12670>
    4da4:	f947c821 	ldr	x1, [x1, #3984]
    4da8:	b4000061 	cbz	x1, 4db4 <ferror@plt+0x18c4>
    4dac:	aa0103f0 	mov	x16, x1
    4db0:	d61f0200 	br	x16
    4db4:	d65f03c0 	ret
    4db8:	900000c0 	adrp	x0, 1c000 <putsgent@@Base+0x13670>
    4dbc:	9116c000 	add	x0, x0, #0x5b0
    4dc0:	900000c1 	adrp	x1, 1c000 <putsgent@@Base+0x13670>
    4dc4:	9116c021 	add	x1, x1, #0x5b0
    4dc8:	cb000021 	sub	x1, x1, x0
    4dcc:	d37ffc22 	lsr	x2, x1, #63
    4dd0:	8b810c41 	add	x1, x2, x1, asr #3
    4dd4:	eb8107ff 	cmp	xzr, x1, asr #1
    4dd8:	9341fc21 	asr	x1, x1, #1
    4ddc:	540000c0 	b.eq	4df4 <ferror@plt+0x1904>  // b.none
    4de0:	f00000a2 	adrp	x2, 1b000 <putsgent@@Base+0x12670>
    4de4:	f947fc42 	ldr	x2, [x2, #4088]
    4de8:	b4000062 	cbz	x2, 4df4 <ferror@plt+0x1904>
    4dec:	aa0203f0 	mov	x16, x2
    4df0:	d61f0200 	br	x16
    4df4:	d65f03c0 	ret
    4df8:	a9be7bfd 	stp	x29, x30, [sp, #-32]!
    4dfc:	910003fd 	mov	x29, sp
    4e00:	f9000bf3 	str	x19, [sp, #16]
    4e04:	900000d3 	adrp	x19, 1c000 <putsgent@@Base+0x13670>
    4e08:	3956c260 	ldrb	w0, [x19, #1456]
    4e0c:	35000140 	cbnz	w0, 4e34 <ferror@plt+0x1944>
    4e10:	f00000a0 	adrp	x0, 1b000 <putsgent@@Base+0x12670>
    4e14:	f947cc00 	ldr	x0, [x0, #3992]
    4e18:	b4000080 	cbz	x0, 4e28 <ferror@plt+0x1938>
    4e1c:	900000c0 	adrp	x0, 1c000 <putsgent@@Base+0x13670>
    4e20:	f9400400 	ldr	x0, [x0, #8]
    4e24:	97fff827 	bl	2ec0 <__cxa_finalize@plt>
    4e28:	97ffffd8 	bl	4d88 <ferror@plt+0x1898>
    4e2c:	52800020 	mov	w0, #0x1                   	// #1
    4e30:	3916c260 	strb	w0, [x19, #1456]
    4e34:	f9400bf3 	ldr	x19, [sp, #16]
    4e38:	a8c27bfd 	ldp	x29, x30, [sp], #32
    4e3c:	d65f03c0 	ret
    4e40:	17ffffde 	b	4db8 <ferror@plt+0x18c8>
    4e44:	d503201f 	nop
    4e48:	a9be7bfd 	stp	x29, x30, [sp, #-32]!
    4e4c:	910003fd 	mov	x29, sp
    4e50:	f9000bf3 	str	x19, [sp, #16]
    4e54:	900000d3 	adrp	x19, 1c000 <putsgent@@Base+0x13670>
    4e58:	9116e273 	add	x19, x19, #0x5b8
    4e5c:	aa1303e0 	mov	x0, x19
    4e60:	97fff7e0 	bl	2de0 <strlen@plt>
    4e64:	aa1303e1 	mov	x1, x19
    4e68:	aa0003e2 	mov	x2, x0
    4e6c:	52800040 	mov	w0, #0x2                   	// #2
    4e70:	97fff8cc 	bl	31a0 <write@plt>
    4e74:	52800000 	mov	w0, #0x0                   	// #0
    4e78:	97fff7ca 	bl	2da0 <_exit@plt>
    4e7c:	d503201f 	nop
    4e80:	a9bd7bfd 	stp	x29, x30, [sp, #-48]!
    4e84:	528000a2 	mov	w2, #0x5                   	// #5
    4e88:	90000021 	adrp	x1, 8000 <ferror@plt+0x4b10>
    4e8c:	910003fd 	mov	x29, sp
    4e90:	a90153f3 	stp	x19, x20, [sp, #16]
    4e94:	f00000b4 	adrp	x20, 1b000 <putsgent@@Base+0x12670>
    4e98:	f00000b3 	adrp	x19, 1b000 <putsgent@@Base+0x12670>
    4e9c:	f947d294 	ldr	x20, [x20, #4000]
    4ea0:	9137c021 	add	x1, x1, #0xdf0
    4ea4:	d2800000 	mov	x0, #0x0                   	// #0
    4ea8:	f90013f5 	str	x21, [sp, #32]
    4eac:	f9400295 	ldr	x21, [x20]
    4eb0:	97fff944 	bl	33c0 <dcgettext@plt>
    4eb4:	f947da73 	ldr	x19, [x19, #4016]
    4eb8:	aa0003e2 	mov	x2, x0
    4ebc:	52800021 	mov	w1, #0x1                   	// #1
    4ec0:	aa1503e0 	mov	x0, x21
    4ec4:	f9400263 	ldr	x3, [x19]
    4ec8:	97fff8de 	bl	3240 <__fprintf_chk@plt>
    4ecc:	900000c0 	adrp	x0, 1c000 <putsgent@@Base+0x13670>
    4ed0:	395ae000 	ldrb	w0, [x0, #1720]
    4ed4:	340002e0 	cbz	w0, 4f30 <ferror@plt+0x1a40>
    4ed8:	528000a2 	mov	w2, #0x5                   	// #5
    4edc:	90000021 	adrp	x1, 8000 <ferror@plt+0x4b10>
    4ee0:	d2800000 	mov	x0, #0x0                   	// #0
    4ee4:	91382021 	add	x1, x1, #0xe08
    4ee8:	f9400295 	ldr	x21, [x20]
    4eec:	97fff935 	bl	33c0 <dcgettext@plt>
    4ef0:	f9400263 	ldr	x3, [x19]
    4ef4:	aa0003e2 	mov	x2, x0
    4ef8:	52800021 	mov	w1, #0x1                   	// #1
    4efc:	aa1503e0 	mov	x0, x21
    4f00:	97fff8d0 	bl	3240 <__fprintf_chk@plt>
    4f04:	528000a2 	mov	w2, #0x5                   	// #5
    4f08:	90000021 	adrp	x1, 8000 <ferror@plt+0x4b10>
    4f0c:	d2800000 	mov	x0, #0x0                   	// #0
    4f10:	9138c021 	add	x1, x1, #0xe30
    4f14:	f9400294 	ldr	x20, [x20]
    4f18:	97fff92a 	bl	33c0 <dcgettext@plt>
    4f1c:	f9400263 	ldr	x3, [x19]
    4f20:	aa0003e2 	mov	x2, x0
    4f24:	52800021 	mov	w1, #0x1                   	// #1
    4f28:	aa1403e0 	mov	x0, x20
    4f2c:	97fff8c5 	bl	3240 <__fprintf_chk@plt>
    4f30:	52800020 	mov	w0, #0x1                   	// #1
    4f34:	97fff7b7 	bl	2e10 <exit@plt>
    4f38:	a9bb7bfd 	stp	x29, x30, [sp, #-80]!
    4f3c:	52800041 	mov	w1, #0x2                   	// #2
    4f40:	910003fd 	mov	x29, sp
    4f44:	a90153f3 	stp	x19, x20, [sp, #16]
    4f48:	f00000b3 	adrp	x19, 1b000 <putsgent@@Base+0x12670>
    4f4c:	aa0003f4 	mov	x20, x0
    4f50:	f947e663 	ldr	x3, [x19, #4040]
    4f54:	a9025bf5 	stp	x21, x22, [sp, #32]
    4f58:	900000d6 	adrp	x22, 1c000 <putsgent@@Base+0x13670>
    4f5c:	f9400064 	ldr	x4, [x3]
    4f60:	f90027e4 	str	x4, [sp, #72]
    4f64:	d2800004 	mov	x4, #0x0                   	// #0
    4f68:	f9001bf7 	str	x23, [sp, #48]
    4f6c:	9116e2d7 	add	x23, x22, #0x5b8
    4f70:	910103e2 	add	x2, sp, #0x40
    4f74:	f94086e0 	ldr	x0, [x23, #264]
    4f78:	97fff902 	bl	3380 <pam_get_item@plt>
    4f7c:	350002a0 	cbnz	w0, 4fd0 <ferror@plt+0x1ae0>
    4f80:	f9400280 	ldr	x0, [x20]
    4f84:	b4000040 	cbz	x0, 4f8c <ferror@plt+0x1a9c>
    4f88:	97fff8ca 	bl	32b0 <free@plt>
    4f8c:	f94023e0 	ldr	x0, [sp, #64]
    4f90:	b40001c0 	cbz	x0, 4fc8 <ferror@plt+0x1ad8>
    4f94:	94000a2f 	bl	7850 <ferror@plt+0x4360>
    4f98:	f9000280 	str	x0, [x20]
    4f9c:	f947e673 	ldr	x19, [x19, #4040]
    4fa0:	f94027e0 	ldr	x0, [sp, #72]
    4fa4:	f9400261 	ldr	x1, [x19]
    4fa8:	eb010000 	subs	x0, x0, x1
    4fac:	d2800001 	mov	x1, #0x0                   	// #0
    4fb0:	54000681 	b.ne	5080 <ferror@plt+0x1b90>  // b.any
    4fb4:	a94153f3 	ldp	x19, x20, [sp, #16]
    4fb8:	a9425bf5 	ldp	x21, x22, [sp, #32]
    4fbc:	f9401bf7 	ldr	x23, [sp, #48]
    4fc0:	a8c57bfd 	ldp	x29, x30, [sp], #80
    4fc4:	d65f03c0 	ret
    4fc8:	f900029f 	str	xzr, [x20]
    4fcc:	17fffff4 	b	4f9c <ferror@plt+0x1aac>
    4fd0:	f00000a2 	adrp	x2, 1b000 <putsgent@@Base+0x12670>
    4fd4:	2a0003e1 	mov	w1, w0
    4fd8:	2a0003f5 	mov	w21, w0
    4fdc:	f947d042 	ldr	x2, [x2, #4000]
    4fe0:	f94086e0 	ldr	x0, [x23, #264]
    4fe4:	f9400053 	ldr	x19, [x2]
    4fe8:	97fff7fe 	bl	2fe0 <pam_strerror@plt>
    4fec:	aa0003e3 	mov	x3, x0
    4ff0:	90000022 	adrp	x2, 8000 <ferror@plt+0x4b10>
    4ff4:	91392042 	add	x2, x2, #0xe48
    4ff8:	52800021 	mov	w1, #0x1                   	// #1
    4ffc:	aa1303e0 	mov	x0, x19
    5000:	97fff890 	bl	3240 <__fprintf_chk@plt>
    5004:	d2800001 	mov	x1, #0x0                   	// #0
    5008:	528000c0 	mov	w0, #0x6                   	// #6
    500c:	97fff935 	bl	34e0 <setlocale@plt>
    5010:	b40003a0 	cbz	x0, 5084 <ferror@plt+0x1b94>
    5014:	97fff84b 	bl	3140 <strdup@plt>
    5018:	aa0003f3 	mov	x19, x0
    501c:	b4000340 	cbz	x0, 5084 <ferror@plt+0x1b94>
    5020:	f0000001 	adrp	x1, 8000 <ferror@plt+0x4b10>
    5024:	528000c0 	mov	w0, #0x6                   	// #6
    5028:	91394021 	add	x1, x1, #0xe50
    502c:	97fff92d 	bl	34e0 <setlocale@plt>
    5030:	f94086e0 	ldr	x0, [x23, #264]
    5034:	2a1503e1 	mov	w1, w21
    5038:	97fff7ea 	bl	2fe0 <pam_strerror@plt>
    503c:	aa0003e3 	mov	x3, x0
    5040:	52800021 	mov	w1, #0x1                   	// #1
    5044:	52800060 	mov	w0, #0x3                   	// #3
    5048:	90000022 	adrp	x2, 9000 <putsgent@@Base+0x670>
    504c:	91070042 	add	x2, x2, #0x1c0
    5050:	97fff8a8 	bl	32f0 <__syslog_chk@plt>
    5054:	aa1303e1 	mov	x1, x19
    5058:	528000c0 	mov	w0, #0x6                   	// #6
    505c:	97fff921 	bl	34e0 <setlocale@plt>
    5060:	aa1303e0 	mov	x0, x19
    5064:	97fff893 	bl	32b0 <free@plt>
    5068:	9116e2d6 	add	x22, x22, #0x5b8
    506c:	2a1503e1 	mov	w1, w21
    5070:	f94086c0 	ldr	x0, [x22, #264]
    5074:	97fff7cb 	bl	2fa0 <pam_end@plt>
    5078:	52800020 	mov	w0, #0x1                   	// #1
    507c:	97fff765 	bl	2e10 <exit@plt>
    5080:	97fff838 	bl	3160 <__stack_chk_fail@plt>
    5084:	9116e2c0 	add	x0, x22, #0x5b8
    5088:	2a1503e1 	mov	w1, w21
    508c:	f9408400 	ldr	x0, [x0, #264]
    5090:	97fff7d4 	bl	2fe0 <pam_strerror@plt>
    5094:	aa0003e3 	mov	x3, x0
    5098:	90000022 	adrp	x2, 9000 <putsgent@@Base+0x670>
    509c:	52800021 	mov	w1, #0x1                   	// #1
    50a0:	91070042 	add	x2, x2, #0x1c0
    50a4:	52800060 	mov	w0, #0x3                   	// #3
    50a8:	97fff892 	bl	32f0 <__syslog_chk@plt>
    50ac:	17ffffef 	b	5068 <ferror@plt+0x1b78>
    50b0:	a9be7bfd 	stp	x29, x30, [sp, #-32]!
    50b4:	f0000001 	adrp	x1, 8000 <ferror@plt+0x4b10>
    50b8:	910003fd 	mov	x29, sp
    50bc:	f9000bf3 	str	x19, [sp, #16]
    50c0:	aa0003f3 	mov	x19, x0
    50c4:	91398020 	add	x0, x1, #0xe60
    50c8:	94000b52 	bl	7e10 <ferror@plt+0x4920>
    50cc:	b4000073 	cbz	x19, 50d8 <ferror@plt+0x1be8>
    50d0:	39400261 	ldrb	w1, [x19]
    50d4:	350000c1 	cbnz	w1, 50ec <ferror@plt+0x1bfc>
    50d8:	f0000000 	adrp	x0, 8000 <ferror@plt+0x4b10>
    50dc:	91396000 	add	x0, x0, #0xe58
    50e0:	f9400bf3 	ldr	x19, [sp, #16]
    50e4:	a8c27bfd 	ldp	x29, x30, [sp], #32
    50e8:	d65f03c0 	ret
    50ec:	12001c00 	and	w0, w0, #0xff
    50f0:	340000a0 	cbz	w0, 5104 <ferror@plt+0x1c14>
    50f4:	aa1303e0 	mov	x0, x19
    50f8:	f9400bf3 	ldr	x19, [sp, #16]
    50fc:	a8c27bfd 	ldp	x29, x30, [sp], #32
    5100:	d65f03c0 	ret
    5104:	aa1303e0 	mov	x0, x19
    5108:	97fff7ee 	bl	30c0 <getpwnam@plt>
    510c:	b4fffe60 	cbz	x0, 50d8 <ferror@plt+0x1be8>
    5110:	aa1303e0 	mov	x0, x19
    5114:	17fffff9 	b	50f8 <ferror@plt+0x1c08>
    5118:	a9bf7bfd 	stp	x29, x30, [sp, #-16]!
    511c:	910003fd 	mov	x29, sp
    5120:	97fff7c0 	bl	3020 <audit_open@plt>
    5124:	d00000a1 	adrp	x1, 1b000 <putsgent@@Base+0x12670>
    5128:	f947f421 	ldr	x1, [x1, #4072]
    512c:	b9000020 	str	w0, [x1]
    5130:	37f80060 	tbnz	w0, #31, 513c <ferror@plt+0x1c4c>
    5134:	a8c17bfd 	ldp	x29, x30, [sp], #16
    5138:	d65f03c0 	ret
    513c:	97fff8c1 	bl	3440 <__errno_location@plt>
    5140:	b9400000 	ldr	w0, [x0]
    5144:	51017401 	sub	w1, w0, #0x5d
    5148:	721d783f 	tst	w1, #0xfffffffb
    514c:	7a561804 	ccmp	w0, #0x16, #0x4, ne  // ne = any
    5150:	54ffff20 	b.eq	5134 <ferror@plt+0x1c44>  // b.none
    5154:	528000a2 	mov	w2, #0x5                   	// #5
    5158:	90000021 	adrp	x1, 9000 <putsgent@@Base+0x670>
    515c:	d2800000 	mov	x0, #0x0                   	// #0
    5160:	910da021 	add	x1, x1, #0x368
    5164:	97fff897 	bl	33c0 <dcgettext@plt>
    5168:	d00000a1 	adrp	x1, 1b000 <putsgent@@Base+0x12670>
    516c:	f947d021 	ldr	x1, [x1, #4000]
    5170:	f9400021 	ldr	x1, [x1]
    5174:	97fff723 	bl	2e00 <fputs@plt>
    5178:	52800020 	mov	w0, #0x1                   	// #1
    517c:	97fff725 	bl	2e10 <exit@plt>
    5180:	d00000a6 	adrp	x6, 1b000 <putsgent@@Base+0x12670>
    5184:	2a0003e1 	mov	w1, w0
    5188:	f947f4c6 	ldr	x6, [x6, #4072]
    518c:	b94000c0 	ldr	w0, [x6]
    5190:	37f80220 	tbnz	w0, #31, 51d4 <ferror@plt+0x1ce4>
    5194:	d10083ff 	sub	sp, sp, #0x20
    5198:	2a0503e6 	mov	w6, w5
    519c:	d2800007 	mov	x7, #0x0                   	// #0
    51a0:	2a0403e5 	mov	w5, w4
    51a4:	aa0303e4 	mov	x4, x3
    51a8:	aa0203e3 	mov	x3, x2
    51ac:	a9017bfd 	stp	x29, x30, [sp, #16]
    51b0:	910043fd 	add	x29, sp, #0x10
    51b4:	d2800002 	mov	x2, #0x0                   	// #0
    51b8:	f90003ff 	str	xzr, [sp]
    51bc:	b9000be6 	str	w6, [sp, #8]
    51c0:	d2800006 	mov	x6, #0x0                   	// #0
    51c4:	97fff893 	bl	3410 <audit_log_acct_message@plt>
    51c8:	a9417bfd 	ldp	x29, x30, [sp, #16]
    51cc:	910083ff 	add	sp, sp, #0x20
    51d0:	d65f03c0 	ret
    51d4:	d65f03c0 	ret
    51d8:	d00000a3 	adrp	x3, 1b000 <putsgent@@Base+0x12670>
    51dc:	aa0003e2 	mov	x2, x0
    51e0:	2a0103e6 	mov	w6, w1
    51e4:	f947f463 	ldr	x3, [x3, #4072]
    51e8:	b9400060 	ldr	w0, [x3]
    51ec:	37f800c0 	tbnz	w0, #31, 5204 <ferror@plt+0x1d14>
    51f0:	d2800005 	mov	x5, #0x0                   	// #0
    51f4:	d2800004 	mov	x4, #0x0                   	// #0
    51f8:	d2800003 	mov	x3, #0x0                   	// #0
    51fc:	52808ae1 	mov	w1, #0x457                 	// #1111
    5200:	17fff880 	b	3400 <audit_log_user_message@plt>
    5204:	d65f03c0 	ret
    5208:	a9be7bfd 	stp	x29, x30, [sp, #-32]!
    520c:	528005e1 	mov	w1, #0x2f                  	// #47
    5210:	910003fd 	mov	x29, sp
    5214:	f9000bf3 	str	x19, [sp, #16]
    5218:	aa0003f3 	mov	x19, x0
    521c:	97fff7d9 	bl	3180 <strrchr@plt>
    5220:	f100001f 	cmp	x0, #0x0
    5224:	9a800660 	csinc	x0, x19, x0, eq  // eq = none
    5228:	f9400bf3 	ldr	x19, [sp, #16]
    522c:	a8c27bfd 	ldp	x29, x30, [sp], #32
    5230:	d65f03c0 	ret
    5234:	d503201f 	nop
    5238:	a9bd7bfd 	stp	x29, x30, [sp, #-48]!
    523c:	90000021 	adrp	x1, 9000 <putsgent@@Base+0x670>
    5240:	910003fd 	mov	x29, sp
    5244:	a90153f3 	stp	x19, x20, [sp, #16]
    5248:	aa0003f3 	mov	x19, x0
    524c:	910e6020 	add	x0, x1, #0x398
    5250:	94000ae0 	bl	7dd0 <ferror@plt+0x48e0>
    5254:	94000375 	bl	6028 <ferror@plt+0x2b38>
    5258:	b40009a0 	cbz	x0, 538c <ferror@plt+0x1e9c>
    525c:	b9401002 	ldr	w2, [x0, #16]
    5260:	b9401261 	ldr	w1, [x19, #16]
    5264:	52800000 	mov	w0, #0x0                   	// #0
    5268:	97fff88e 	bl	34a0 <fchown@plt>
    526c:	35000120 	cbnz	w0, 5290 <ferror@plt+0x1da0>
    5270:	52803001 	mov	w1, #0x180                 	// #384
    5274:	90000020 	adrp	x0, 9000 <putsgent@@Base+0x670>
    5278:	910f6000 	add	x0, x0, #0x3d8
    527c:	94000b01 	bl	7e80 <ferror@plt+0x4990>
    5280:	2a0003e1 	mov	w1, w0
    5284:	52800000 	mov	w0, #0x0                   	// #0
    5288:	97fff796 	bl	30e0 <fchmod@plt>
    528c:	34000640 	cbz	w0, 5354 <ferror@plt+0x1e64>
    5290:	a9025bf5 	stp	x21, x22, [sp, #32]
    5294:	97fff86b 	bl	3440 <__errno_location@plt>
    5298:	d00000a3 	adrp	x3, 1b000 <putsgent@@Base+0x12670>
    529c:	aa0003e4 	mov	x4, x0
    52a0:	90000021 	adrp	x1, 9000 <putsgent@@Base+0x670>
    52a4:	f947d063 	ldr	x3, [x3, #4000]
    52a8:	910ea021 	add	x1, x1, #0x3a8
    52ac:	b9400094 	ldr	w20, [x4]
    52b0:	528000a2 	mov	w2, #0x5                   	// #5
    52b4:	d2800000 	mov	x0, #0x0                   	// #0
    52b8:	f9400076 	ldr	x22, [x3]
    52bc:	97fff841 	bl	33c0 <dcgettext@plt>
    52c0:	aa0003f5 	mov	x21, x0
    52c4:	2a1403e0 	mov	w0, w20
    52c8:	97fff7a2 	bl	3150 <strerror@plt>
    52cc:	aa0003e3 	mov	x3, x0
    52d0:	aa1503e2 	mov	x2, x21
    52d4:	52800021 	mov	w1, #0x1                   	// #1
    52d8:	aa1603e0 	mov	x0, x22
    52dc:	97fff7d9 	bl	3240 <__fprintf_chk@plt>
    52e0:	d2800001 	mov	x1, #0x0                   	// #0
    52e4:	528000c0 	mov	w0, #0x6                   	// #6
    52e8:	97fff87e 	bl	34e0 <setlocale@plt>
    52ec:	b40003a0 	cbz	x0, 5360 <ferror@plt+0x1e70>
    52f0:	97fff794 	bl	3140 <strdup@plt>
    52f4:	aa0003f5 	mov	x21, x0
    52f8:	b4000340 	cbz	x0, 5360 <ferror@plt+0x1e70>
    52fc:	f0000001 	adrp	x1, 8000 <ferror@plt+0x4b10>
    5300:	91394021 	add	x1, x1, #0xe50
    5304:	528000c0 	mov	w0, #0x6                   	// #6
    5308:	97fff876 	bl	34e0 <setlocale@plt>
    530c:	f9400273 	ldr	x19, [x19]
    5310:	2a1403e0 	mov	w0, w20
    5314:	97fff78f 	bl	3150 <strerror@plt>
    5318:	aa0003e4 	mov	x4, x0
    531c:	aa1303e3 	mov	x3, x19
    5320:	52800021 	mov	w1, #0x1                   	// #1
    5324:	52800080 	mov	w0, #0x4                   	// #4
    5328:	90000022 	adrp	x2, 9000 <putsgent@@Base+0x670>
    532c:	910f8042 	add	x2, x2, #0x3e0
    5330:	97fff7f0 	bl	32f0 <__syslog_chk@plt>
    5334:	aa1503e1 	mov	x1, x21
    5338:	528000c0 	mov	w0, #0x6                   	// #6
    533c:	97fff869 	bl	34e0 <setlocale@plt>
    5340:	aa1503e0 	mov	x0, x21
    5344:	97fff7db 	bl	32b0 <free@plt>
    5348:	71007a9f 	cmp	w20, #0x1e
    534c:	54000241 	b.ne	5394 <ferror@plt+0x1ea4>  // b.any
    5350:	a9425bf5 	ldp	x21, x22, [sp, #32]
    5354:	a94153f3 	ldp	x19, x20, [sp, #16]
    5358:	a8c37bfd 	ldp	x29, x30, [sp], #48
    535c:	d65f03c0 	ret
    5360:	f9400273 	ldr	x19, [x19]
    5364:	2a1403e0 	mov	w0, w20
    5368:	97fff77a 	bl	3150 <strerror@plt>
    536c:	aa0003e4 	mov	x4, x0
    5370:	aa1303e3 	mov	x3, x19
    5374:	90000022 	adrp	x2, 9000 <putsgent@@Base+0x670>
    5378:	52800021 	mov	w1, #0x1                   	// #1
    537c:	910f8042 	add	x2, x2, #0x3e0
    5380:	52800080 	mov	w0, #0x4                   	// #4
    5384:	97fff7db 	bl	32f0 <__syslog_chk@plt>
    5388:	17fffff0 	b	5348 <ferror@plt+0x1e58>
    538c:	b9401662 	ldr	w2, [x19, #20]
    5390:	17ffffb4 	b	5260 <ferror@plt+0x1d70>
    5394:	97fff6db 	bl	2f00 <closelog@plt>
    5398:	52800020 	mov	w0, #0x1                   	// #1
    539c:	97fff69d 	bl	2e10 <exit@plt>
    53a0:	a9bf7bfd 	stp	x29, x30, [sp, #-16]!
    53a4:	d2801000 	mov	x0, #0x80                  	// #128
    53a8:	910003fd 	mov	x29, sp
    53ac:	9400090b 	bl	77d8 <ferror@plt+0x42e8>
    53b0:	f00000a1 	adrp	x1, 1c000 <putsgent@@Base+0x13670>
    53b4:	f9037c20 	str	x0, [x1, #1784]
    53b8:	f900001f 	str	xzr, [x0]
    53bc:	a8c17bfd 	ldp	x29, x30, [sp], #16
    53c0:	d65f03c0 	ret
    53c4:	d503201f 	nop
    53c8:	a9bb7bfd 	stp	x29, x30, [sp, #-80]!
    53cc:	910003fd 	mov	x29, sp
    53d0:	a90153f3 	stp	x19, x20, [sp, #16]
    53d4:	a9025bf5 	stp	x21, x22, [sp, #32]
    53d8:	b4000a21 	cbz	x1, 551c <ferror@plt+0x202c>
    53dc:	aa0103f4 	mov	x20, x1
    53e0:	aa0003f5 	mov	x21, x0
    53e4:	97fff67f 	bl	2de0 <strlen@plt>
    53e8:	aa0003f3 	mov	x19, x0
    53ec:	aa1403e0 	mov	x0, x20
    53f0:	97fff67c 	bl	2de0 <strlen@plt>
    53f4:	8b000273 	add	x19, x19, x0
    53f8:	91000a73 	add	x19, x19, #0x2
    53fc:	aa1303e0 	mov	x0, x19
    5400:	940008f6 	bl	77d8 <ferror@plt+0x42e8>
    5404:	aa1303e1 	mov	x1, x19
    5408:	51000673 	sub	w19, w19, #0x1
    540c:	aa1403e6 	mov	x6, x20
    5410:	aa1503e5 	mov	x5, x21
    5414:	aa0003f6 	mov	x22, x0
    5418:	90000024 	adrp	x4, 9000 <putsgent@@Base+0x670>
    541c:	92800003 	mov	x3, #0xffffffffffffffff    	// #-1
    5420:	91108084 	add	x4, x4, #0x420
    5424:	52800022 	mov	w2, #0x1                   	// #1
    5428:	97fff6da 	bl	2f90 <__snprintf_chk@plt>
    542c:	6b00027f 	cmp	w19, w0
    5430:	54000a81 	b.ne	5580 <ferror@plt+0x2090>  // b.any
    5434:	aa1603e0 	mov	x0, x22
    5438:	528007a1 	mov	w1, #0x3d                  	// #61
    543c:	97fff7a5 	bl	32d0 <strchr@plt>
    5440:	b40008c0 	cbz	x0, 5558 <ferror@plt+0x2068>
    5444:	a9046bf9 	stp	x25, x26, [sp, #64]
    5448:	f00000b9 	adrp	x25, 1c000 <putsgent@@Base+0x13670>
    544c:	911be321 	add	x1, x25, #0x6f8
    5450:	a90363f7 	stp	x23, x24, [sp, #48]
    5454:	cb160015 	sub	x21, x0, x22
    5458:	f9400438 	ldr	x24, [x1, #8]
    545c:	f9437f37 	ldr	x23, [x25, #1784]
    5460:	b4000878 	cbz	x24, 556c <ferror@plt+0x207c>
    5464:	d2800013 	mov	x19, #0x0                   	// #0
    5468:	f8737af4 	ldr	x20, [x23, x19, lsl #3]
    546c:	aa1503e2 	mov	x2, x21
    5470:	aa1603e0 	mov	x0, x22
    5474:	d37df27a 	lsl	x26, x19, #3
    5478:	aa1403e1 	mov	x1, x20
    547c:	97fff6f9 	bl	3060 <strncmp@plt>
    5480:	350000a0 	cbnz	w0, 5494 <ferror@plt+0x1fa4>
    5484:	38756a81 	ldrb	w1, [x20, x21]
    5488:	7100f43f 	cmp	w1, #0x3d
    548c:	7a401824 	ccmp	w1, #0x0, #0x4, ne  // ne = any
    5490:	54000500 	b.eq	5530 <ferror@plt+0x2040>  // b.none
    5494:	91000673 	add	x19, x19, #0x1
    5498:	eb18027f 	cmp	x19, x24
    549c:	54fffe61 	b.ne	5468 <ferror@plt+0x1f78>  // b.any
    54a0:	911be334 	add	x20, x25, #0x6f8
    54a4:	91000660 	add	x0, x19, #0x1
    54a8:	d37df261 	lsl	x1, x19, #3
    54ac:	f2400c1f 	tst	x0, #0xf
    54b0:	f9000680 	str	x0, [x20, #8]
    54b4:	f8337af6 	str	x22, [x23, x19, lsl #3]
    54b8:	54000120 	b.eq	54dc <ferror@plt+0x1fec>  // b.none
    54bc:	91002021 	add	x1, x1, #0x8
    54c0:	f8216aff 	str	xzr, [x23, x1]
    54c4:	a94153f3 	ldp	x19, x20, [sp, #16]
    54c8:	a9425bf5 	ldp	x21, x22, [sp, #32]
    54cc:	a94363f7 	ldp	x23, x24, [sp, #48]
    54d0:	a9446bf9 	ldp	x25, x26, [sp, #64]
    54d4:	a8c57bfd 	ldp	x29, x30, [sp], #80
    54d8:	d65f03c0 	ret
    54dc:	aa1703e0 	mov	x0, x23
    54e0:	91022021 	add	x1, x1, #0x88
    54e4:	97fff70f 	bl	3120 <realloc@plt>
    54e8:	aa0003f7 	mov	x23, x0
    54ec:	b40005e0 	cbz	x0, 55a8 <ferror@plt+0x20b8>
    54f0:	d00000a0 	adrp	x0, 1b000 <putsgent@@Base+0x12670>
    54f4:	f9437f21 	ldr	x1, [x25, #1784]
    54f8:	f947f800 	ldr	x0, [x0, #4080]
    54fc:	f9400002 	ldr	x2, [x0]
    5500:	eb01005f 	cmp	x2, x1
    5504:	54000120 	b.eq	5528 <ferror@plt+0x2038>  // b.none
    5508:	911be320 	add	x0, x25, #0x6f8
    550c:	f9037f37 	str	x23, [x25, #1784]
    5510:	f9400401 	ldr	x1, [x0, #8]
    5514:	d37df021 	lsl	x1, x1, #3
    5518:	17ffffea 	b	54c0 <ferror@plt+0x1fd0>
    551c:	940008cd 	bl	7850 <ferror@plt+0x4360>
    5520:	aa0003f6 	mov	x22, x0
    5524:	17ffffc4 	b	5434 <ferror@plt+0x1f44>
    5528:	f9000017 	str	x23, [x0]
    552c:	17fffff7 	b	5508 <ferror@plt+0x2018>
    5530:	aa1403e0 	mov	x0, x20
    5534:	97fff75f 	bl	32b0 <free@plt>
    5538:	f9437f20 	ldr	x0, [x25, #1784]
    553c:	a94153f3 	ldp	x19, x20, [sp, #16]
    5540:	f83a6816 	str	x22, [x0, x26]
    5544:	a9425bf5 	ldp	x21, x22, [sp, #32]
    5548:	a94363f7 	ldp	x23, x24, [sp, #48]
    554c:	a9446bf9 	ldp	x25, x26, [sp, #64]
    5550:	a8c57bfd 	ldp	x29, x30, [sp], #80
    5554:	d65f03c0 	ret
    5558:	aa1603e0 	mov	x0, x22
    555c:	a94153f3 	ldp	x19, x20, [sp, #16]
    5560:	a9425bf5 	ldp	x21, x22, [sp, #32]
    5564:	a8c57bfd 	ldp	x29, x30, [sp], #80
    5568:	17fff752 	b	32b0 <free@plt>
    556c:	d2800020 	mov	x0, #0x1                   	// #1
    5570:	f9000420 	str	x0, [x1, #8]
    5574:	d2800101 	mov	x1, #0x8                   	// #8
    5578:	f90002f6 	str	x22, [x23]
    557c:	17ffffd1 	b	54c0 <ferror@plt+0x1fd0>
    5580:	90000023 	adrp	x3, 9000 <putsgent@@Base+0x670>
    5584:	90000021 	adrp	x1, 9000 <putsgent@@Base+0x670>
    5588:	90000020 	adrp	x0, 9000 <putsgent@@Base+0x670>
    558c:	9114c063 	add	x3, x3, #0x530
    5590:	9110a021 	add	x1, x1, #0x428
    5594:	9110c000 	add	x0, x0, #0x430
    5598:	52800c82 	mov	w2, #0x64                  	// #100
    559c:	a90363f7 	stp	x23, x24, [sp, #48]
    55a0:	a9046bf9 	stp	x25, x26, [sp, #64]
    55a4:	97fff7a3 	bl	3430 <__assert_fail@plt>
    55a8:	528000a2 	mov	w2, #0x5                   	// #5
    55ac:	90000021 	adrp	x1, 9000 <putsgent@@Base+0x670>
    55b0:	91112021 	add	x1, x1, #0x448
    55b4:	97fff783 	bl	33c0 <dcgettext@plt>
    55b8:	d00000a1 	adrp	x1, 1b000 <putsgent@@Base+0x12670>
    55bc:	f947d021 	ldr	x1, [x1, #4000]
    55c0:	f9400021 	ldr	x1, [x1]
    55c4:	97fff60f 	bl	2e00 <fputs@plt>
    55c8:	f9400680 	ldr	x0, [x20, #8]
    55cc:	f9437f21 	ldr	x1, [x25, #1784]
    55d0:	d1000400 	sub	x0, x0, #0x1
    55d4:	f9000680 	str	x0, [x20, #8]
    55d8:	f8607820 	ldr	x0, [x1, x0, lsl #3]
    55dc:	97fff735 	bl	32b0 <free@plt>
    55e0:	f9400681 	ldr	x1, [x20, #8]
    55e4:	f9437f37 	ldr	x23, [x25, #1784]
    55e8:	d37df021 	lsl	x1, x1, #3
    55ec:	17ffffb5 	b	54c0 <ferror@plt+0x1fd0>
    55f0:	d111c3ff 	sub	sp, sp, #0x470
    55f4:	d00000a2 	adrp	x2, 1b000 <putsgent@@Base+0x12670>
    55f8:	7100001f 	cmp	w0, #0x0
    55fc:	a9007bfd 	stp	x29, x30, [sp]
    5600:	910003fd 	mov	x29, sp
    5604:	f947e442 	ldr	x2, [x2, #4040]
    5608:	a9025bf5 	stp	x21, x22, [sp, #32]
    560c:	aa0103f5 	mov	x21, x1
    5610:	f9400041 	ldr	x1, [x2]
    5614:	f90237e1 	str	x1, [sp, #1128]
    5618:	d2800001 	mov	x1, #0x0                   	// #0
    561c:	a90573fb 	stp	x27, x28, [sp, #80]
    5620:	5400076d 	b.le	570c <ferror@plt+0x221c>
    5624:	a90363f7 	stp	x23, x24, [sp, #48]
    5628:	51000417 	sub	w23, w0, #0x1
    562c:	910006f7 	add	x23, x23, #0x1
    5630:	9000003b 	adrp	x27, 9000 <putsgent@@Base+0x670>
    5634:	9101a3f8 	add	x24, sp, #0x68
    5638:	9111837b 	add	x27, x27, #0x460
    563c:	8b170eb7 	add	x23, x21, x23, lsl #3
    5640:	a9046bf9 	stp	x25, x26, [sp, #64]
    5644:	f00000b9 	adrp	x25, 1c000 <putsgent@@Base+0x13670>
    5648:	9100a339 	add	x25, x25, #0x28
    564c:	5280003a 	mov	w26, #0x1                   	// #1
    5650:	a90153f3 	stp	x19, x20, [sp, #16]
    5654:	d503201f 	nop
    5658:	f94002b4 	ldr	x20, [x21]
    565c:	aa1403e0 	mov	x0, x20
    5660:	97fff5e0 	bl	2de0 <strlen@plt>
    5664:	f10ffc1f 	cmp	x0, #0x3ff
    5668:	54000468 	b.hi	56f4 <ferror@plt+0x2204>  // b.pmore
    566c:	aa1403e0 	mov	x0, x20
    5670:	528007a1 	mov	w1, #0x3d                  	// #61
    5674:	97fff717 	bl	32d0 <strchr@plt>
    5678:	aa0003f6 	mov	x22, x0
    567c:	b4000600 	cbz	x0, 573c <ferror@plt+0x224c>
    5680:	f9400333 	ldr	x19, [x25]
    5684:	aa1903fc 	mov	x28, x25
    5688:	b5000093 	cbnz	x19, 5698 <ferror@plt+0x21a8>
    568c:	14000038 	b	576c <ferror@plt+0x227c>
    5690:	f8408f93 	ldr	x19, [x28, #8]!
    5694:	b40006d3 	cbz	x19, 576c <ferror@plt+0x227c>
    5698:	aa1303e0 	mov	x0, x19
    569c:	97fff5d1 	bl	2de0 <strlen@plt>
    56a0:	aa1303e1 	mov	x1, x19
    56a4:	aa0003e2 	mov	x2, x0
    56a8:	aa1403e0 	mov	x0, x20
    56ac:	97fff66d 	bl	3060 <strncmp@plt>
    56b0:	35ffff00 	cbnz	w0, 5690 <ferror@plt+0x21a0>
    56b4:	cb1402d6 	sub	x22, x22, x20
    56b8:	d2808003 	mov	x3, #0x400                 	// #1024
    56bc:	aa1403e1 	mov	x1, x20
    56c0:	aa1603e2 	mov	x2, x22
    56c4:	aa1803e0 	mov	x0, x24
    56c8:	97fff65a 	bl	3030 <__strncpy_chk@plt>
    56cc:	528000a2 	mov	w2, #0x5                   	// #5
    56d0:	90000021 	adrp	x1, 9000 <putsgent@@Base+0x670>
    56d4:	d2800000 	mov	x0, #0x0                   	// #0
    56d8:	9111a021 	add	x1, x1, #0x468
    56dc:	38366b1f 	strb	wzr, [x24, x22]
    56e0:	97fff738 	bl	33c0 <dcgettext@plt>
    56e4:	aa1803e2 	mov	x2, x24
    56e8:	aa0003e1 	mov	x1, x0
    56ec:	52800020 	mov	w0, #0x1                   	// #1
    56f0:	97fff668 	bl	3090 <__printf_chk@plt>
    56f4:	910022b5 	add	x21, x21, #0x8
    56f8:	eb1702bf 	cmp	x21, x23
    56fc:	54fffae1 	b.ne	5658 <ferror@plt+0x2168>  // b.any
    5700:	a94153f3 	ldp	x19, x20, [sp, #16]
    5704:	a94363f7 	ldp	x23, x24, [sp, #48]
    5708:	a9446bf9 	ldp	x25, x26, [sp, #64]
    570c:	d00000a0 	adrp	x0, 1b000 <putsgent@@Base+0x12670>
    5710:	f947e41c 	ldr	x28, [x0, #4040]
    5714:	f94237e0 	ldr	x0, [sp, #1128]
    5718:	f9400381 	ldr	x1, [x28]
    571c:	eb010000 	subs	x0, x0, x1
    5720:	d2800001 	mov	x1, #0x0                   	// #0
    5724:	540002c1 	b.ne	577c <ferror@plt+0x228c>  // b.any
    5728:	a9407bfd 	ldp	x29, x30, [sp]
    572c:	a9425bf5 	ldp	x21, x22, [sp, #32]
    5730:	a94573fb 	ldp	x27, x28, [sp, #80]
    5734:	9111c3ff 	add	sp, sp, #0x470
    5738:	d65f03c0 	ret
    573c:	2a1a03e5 	mov	w5, w26
    5740:	d2808003 	mov	x3, #0x400                 	// #1024
    5744:	aa1b03e4 	mov	x4, x27
    5748:	aa0303e1 	mov	x1, x3
    574c:	aa1803e0 	mov	x0, x24
    5750:	52800022 	mov	w2, #0x1                   	// #1
    5754:	97fff60f 	bl	2f90 <__snprintf_chk@plt>
    5758:	1100075a 	add	w26, w26, #0x1
    575c:	f94002a1 	ldr	x1, [x21]
    5760:	aa1803e0 	mov	x0, x24
    5764:	97ffff19 	bl	53c8 <ferror@plt+0x1ed8>
    5768:	17ffffe3 	b	56f4 <ferror@plt+0x2204>
    576c:	aa1403e0 	mov	x0, x20
    5770:	d2800001 	mov	x1, #0x0                   	// #0
    5774:	97ffff15 	bl	53c8 <ferror@plt+0x1ed8>
    5778:	17ffffdf 	b	56f4 <ferror@plt+0x2204>
    577c:	a90153f3 	stp	x19, x20, [sp, #16]
    5780:	a90363f7 	stp	x23, x24, [sp, #48]
    5784:	a9046bf9 	stp	x25, x26, [sp, #64]
    5788:	97fff676 	bl	3160 <__stack_chk_fail@plt>
    578c:	d503201f 	nop
    5790:	a9bb7bfd 	stp	x29, x30, [sp, #-80]!
    5794:	d00000a0 	adrp	x0, 1b000 <putsgent@@Base+0x12670>
    5798:	910003fd 	mov	x29, sp
    579c:	f947f800 	ldr	x0, [x0, #4080]
    57a0:	a9025bf5 	stp	x21, x22, [sp, #32]
    57a4:	f9400015 	ldr	x21, [x0]
    57a8:	f90023f9 	str	x25, [sp, #64]
    57ac:	f94002b9 	ldr	x25, [x21]
    57b0:	b4000759 	cbz	x25, 5898 <ferror@plt+0x23a8>
    57b4:	f00000b6 	adrp	x22, 1c000 <putsgent@@Base+0x13670>
    57b8:	a90363f7 	stp	x23, x24, [sp, #48]
    57bc:	9100a2d8 	add	x24, x22, #0x28
    57c0:	aa1503f7 	mov	x23, x21
    57c4:	a90153f3 	stp	x19, x20, [sp, #16]
    57c8:	aa1803f4 	mov	x20, x24
    57cc:	f9400313 	ldr	x19, [x24]
    57d0:	b5000093 	cbnz	x19, 57e0 <ferror@plt+0x22f0>
    57d4:	1400003a 	b	58bc <ferror@plt+0x23cc>
    57d8:	f8408e93 	ldr	x19, [x20, #8]!
    57dc:	b4000713 	cbz	x19, 58bc <ferror@plt+0x23cc>
    57e0:	aa1303e0 	mov	x0, x19
    57e4:	97fff57f 	bl	2de0 <strlen@plt>
    57e8:	aa1303e1 	mov	x1, x19
    57ec:	aa0003e2 	mov	x2, x0
    57f0:	aa1903e0 	mov	x0, x25
    57f4:	97fff61b 	bl	3060 <strncmp@plt>
    57f8:	35ffff00 	cbnz	w0, 57d8 <ferror@plt+0x22e8>
    57fc:	f94002e0 	ldr	x0, [x23]
    5800:	b40000e0 	cbz	x0, 581c <ferror@plt+0x232c>
    5804:	aa1703e0 	mov	x0, x23
    5808:	f9400401 	ldr	x1, [x0, #8]
    580c:	f8008401 	str	x1, [x0], #8
    5810:	b5ffffc1 	cbnz	x1, 5808 <ferror@plt+0x2318>
    5814:	f94002f9 	ldr	x25, [x23]
    5818:	b5fffd99 	cbnz	x25, 57c8 <ferror@plt+0x22d8>
    581c:	f94002b4 	ldr	x20, [x21]
    5820:	b4000394 	cbz	x20, 5890 <ferror@plt+0x23a0>
    5824:	9100a2d6 	add	x22, x22, #0x28
    5828:	9101c2d7 	add	x23, x22, #0x70
    582c:	d503201f 	nop
    5830:	f94002f3 	ldr	x19, [x23]
    5834:	aa1703f6 	mov	x22, x23
    5838:	b40003d3 	cbz	x19, 58b0 <ferror@plt+0x23c0>
    583c:	aa1303e0 	mov	x0, x19
    5840:	97fff568 	bl	2de0 <strlen@plt>
    5844:	aa1303e1 	mov	x1, x19
    5848:	aa0003e2 	mov	x2, x0
    584c:	aa1403e0 	mov	x0, x20
    5850:	97fff604 	bl	3060 <strncmp@plt>
    5854:	350002a0 	cbnz	w0, 58a8 <ferror@plt+0x23b8>
    5858:	aa1403e0 	mov	x0, x20
    585c:	528005e1 	mov	w1, #0x2f                  	// #47
    5860:	97fff69c 	bl	32d0 <strchr@plt>
    5864:	b4000220 	cbz	x0, 58a8 <ferror@plt+0x23b8>
    5868:	f94002a0 	ldr	x0, [x21]
    586c:	b4000120 	cbz	x0, 5890 <ferror@plt+0x23a0>
    5870:	aa1503e0 	mov	x0, x21
    5874:	d503201f 	nop
    5878:	f9400401 	ldr	x1, [x0, #8]
    587c:	f8008401 	str	x1, [x0], #8
    5880:	b5ffffc1 	cbnz	x1, 5878 <ferror@plt+0x2388>
    5884:	f94002b4 	ldr	x20, [x21]
    5888:	b5fffd54 	cbnz	x20, 5830 <ferror@plt+0x2340>
    588c:	d503201f 	nop
    5890:	a94153f3 	ldp	x19, x20, [sp, #16]
    5894:	a94363f7 	ldp	x23, x24, [sp, #48]
    5898:	a9425bf5 	ldp	x21, x22, [sp, #32]
    589c:	f94023f9 	ldr	x25, [sp, #64]
    58a0:	a8c57bfd 	ldp	x29, x30, [sp], #80
    58a4:	d65f03c0 	ret
    58a8:	f8408ed3 	ldr	x19, [x22, #8]!
    58ac:	b5fffc93 	cbnz	x19, 583c <ferror@plt+0x234c>
    58b0:	f8408eb4 	ldr	x20, [x21, #8]!
    58b4:	b5fffbf4 	cbnz	x20, 5830 <ferror@plt+0x2340>
    58b8:	17fffff6 	b	5890 <ferror@plt+0x23a0>
    58bc:	f8408ef9 	ldr	x25, [x23, #8]!
    58c0:	b5fff859 	cbnz	x25, 57c8 <ferror@plt+0x22d8>
    58c4:	17ffffd6 	b	581c <ferror@plt+0x232c>
    58c8:	a9bc7bfd 	stp	x29, x30, [sp, #-64]!
    58cc:	910003fd 	mov	x29, sp
    58d0:	a90153f3 	stp	x19, x20, [sp, #16]
    58d4:	aa0203f3 	mov	x19, x2
    58d8:	a90363f7 	stp	x23, x24, [sp, #48]
    58dc:	90000038 	adrp	x24, 9000 <putsgent@@Base+0x670>
    58e0:	9114e314 	add	x20, x24, #0x538
    58e4:	a9025bf5 	stp	x21, x22, [sp, #32]
    58e8:	2a0003f5 	mov	w21, w0
    58ec:	aa0103f6 	mov	x22, x1
    58f0:	aa1403e0 	mov	x0, x20
    58f4:	52800001 	mov	w1, #0x0                   	// #0
    58f8:	97fff63e 	bl	31f0 <access@plt>
    58fc:	340000c0 	cbz	w0, 5914 <ferror@plt+0x2424>
    5900:	a94153f3 	ldp	x19, x20, [sp, #16]
    5904:	a9425bf5 	ldp	x21, x22, [sp, #32]
    5908:	a94363f7 	ldp	x23, x24, [sp, #48]
    590c:	a8c47bfd 	ldp	x29, x30, [sp], #64
    5910:	d65f03c0 	ret
    5914:	aa1403e0 	mov	x0, x20
    5918:	52800041 	mov	w1, #0x2                   	// #2
    591c:	97fff5bd 	bl	3010 <open@plt>
    5920:	2a0003f7 	mov	w23, w0
    5924:	37f80960 	tbnz	w0, #31, 5a50 <ferror@plt+0x2560>
    5928:	d37b7eb4 	ubfiz	x20, x21, #5, #32
    592c:	52800002 	mov	w2, #0x0                   	// #0
    5930:	aa1403e1 	mov	x1, x20
    5934:	97fff57f 	bl	2f30 <lseek@plt>
    5938:	eb14001f 	cmp	x0, x20
    593c:	54000141 	b.ne	5964 <ferror@plt+0x2474>  // b.any
    5940:	aa1303e1 	mov	x1, x19
    5944:	2a1703e0 	mov	w0, w23
    5948:	d2800402 	mov	x2, #0x20                  	// #32
    594c:	97fff685 	bl	3360 <read@plt>
    5950:	f100801f 	cmp	x0, #0x20
    5954:	54000081 	b.ne	5964 <ferror@plt+0x2474>  // b.any
    5958:	79c00260 	ldrsh	w0, [x19]
    595c:	37f800e0 	tbnz	w0, #31, 5978 <ferror@plt+0x2488>
    5960:	14000004 	b	5970 <ferror@plt+0x2480>
    5964:	52800000 	mov	w0, #0x0                   	// #0
    5968:	a9007e7f 	stp	xzr, xzr, [x19]
    596c:	a9017e7f 	stp	xzr, xzr, [x19, #16]
    5970:	11000400 	add	w0, w0, #0x1
    5974:	79000260 	strh	w0, [x19]
    5978:	aa1603e1 	mov	x1, x22
    597c:	d2800182 	mov	x2, #0xc                   	// #12
    5980:	91001260 	add	x0, x19, #0x4
    5984:	97fff69b 	bl	33f0 <strncpy@plt>
    5988:	91004260 	add	x0, x19, #0x10
    598c:	97fff599 	bl	2ff0 <time@plt>
    5990:	aa1403e1 	mov	x1, x20
    5994:	2a1703e0 	mov	w0, w23
    5998:	52800002 	mov	w2, #0x0                   	// #0
    599c:	97fff565 	bl	2f30 <lseek@plt>
    59a0:	eb14001f 	cmp	x0, x20
    59a4:	540008e0 	b.eq	5ac0 <ferror@plt+0x25d0>  // b.none
    59a8:	d2800001 	mov	x1, #0x0                   	// #0
    59ac:	528000c0 	mov	w0, #0x6                   	// #6
    59b0:	97fff6cc 	bl	34e0 <setlocale@plt>
    59b4:	b4000340 	cbz	x0, 5a1c <ferror@plt+0x252c>
    59b8:	97fff5e2 	bl	3140 <strdup@plt>
    59bc:	aa0003f4 	mov	x20, x0
    59c0:	b40002e0 	cbz	x0, 5a1c <ferror@plt+0x252c>
    59c4:	f0000001 	adrp	x1, 8000 <ferror@plt+0x4b10>
    59c8:	528000c0 	mov	w0, #0x6                   	// #6
    59cc:	91394021 	add	x1, x1, #0xe50
    59d0:	97fff6c4 	bl	34e0 <setlocale@plt>
    59d4:	9114e304 	add	x4, x24, #0x538
    59d8:	aa1503e3 	mov	x3, x21
    59dc:	52800021 	mov	w1, #0x1                   	// #1
    59e0:	52800080 	mov	w0, #0x4                   	// #4
    59e4:	90000022 	adrp	x2, 9000 <putsgent@@Base+0x670>
    59e8:	91154042 	add	x2, x2, #0x550
    59ec:	97fff641 	bl	32f0 <__syslog_chk@plt>
    59f0:	aa1403e1 	mov	x1, x20
    59f4:	528000c0 	mov	w0, #0x6                   	// #6
    59f8:	97fff6ba 	bl	34e0 <setlocale@plt>
    59fc:	aa1403e0 	mov	x0, x20
    5a00:	97fff62c 	bl	32b0 <free@plt>
    5a04:	2a1703e0 	mov	w0, w23
    5a08:	a94153f3 	ldp	x19, x20, [sp, #16]
    5a0c:	a9425bf5 	ldp	x21, x22, [sp, #32]
    5a10:	a94363f7 	ldp	x23, x24, [sp, #48]
    5a14:	a8c47bfd 	ldp	x29, x30, [sp], #64
    5a18:	17fff5d6 	b	3170 <close@plt>
    5a1c:	9114e304 	add	x4, x24, #0x538
    5a20:	aa1503e3 	mov	x3, x21
    5a24:	52800021 	mov	w1, #0x1                   	// #1
    5a28:	52800080 	mov	w0, #0x4                   	// #4
    5a2c:	90000022 	adrp	x2, 9000 <putsgent@@Base+0x670>
    5a30:	91154042 	add	x2, x2, #0x550
    5a34:	97fff62f 	bl	32f0 <__syslog_chk@plt>
    5a38:	2a1703e0 	mov	w0, w23
    5a3c:	a94153f3 	ldp	x19, x20, [sp, #16]
    5a40:	a9425bf5 	ldp	x21, x22, [sp, #32]
    5a44:	a94363f7 	ldp	x23, x24, [sp, #48]
    5a48:	a8c47bfd 	ldp	x29, x30, [sp], #64
    5a4c:	17fff5c9 	b	3170 <close@plt>
    5a50:	2a1503f3 	mov	w19, w21
    5a54:	d2800001 	mov	x1, #0x0                   	// #0
    5a58:	528000c0 	mov	w0, #0x6                   	// #6
    5a5c:	97fff6a1 	bl	34e0 <setlocale@plt>
    5a60:	b4000440 	cbz	x0, 5ae8 <ferror@plt+0x25f8>
    5a64:	97fff5b7 	bl	3140 <strdup@plt>
    5a68:	aa0003f5 	mov	x21, x0
    5a6c:	b40003e0 	cbz	x0, 5ae8 <ferror@plt+0x25f8>
    5a70:	f0000001 	adrp	x1, 8000 <ferror@plt+0x4b10>
    5a74:	528000c0 	mov	w0, #0x6                   	// #6
    5a78:	91394021 	add	x1, x1, #0xe50
    5a7c:	97fff699 	bl	34e0 <setlocale@plt>
    5a80:	aa1403e4 	mov	x4, x20
    5a84:	aa1303e3 	mov	x3, x19
    5a88:	90000022 	adrp	x2, 9000 <putsgent@@Base+0x670>
    5a8c:	91154042 	add	x2, x2, #0x550
    5a90:	52800021 	mov	w1, #0x1                   	// #1
    5a94:	52800080 	mov	w0, #0x4                   	// #4
    5a98:	97fff616 	bl	32f0 <__syslog_chk@plt>
    5a9c:	aa1503e1 	mov	x1, x21
    5aa0:	528000c0 	mov	w0, #0x6                   	// #6
    5aa4:	97fff68f 	bl	34e0 <setlocale@plt>
    5aa8:	aa1503e0 	mov	x0, x21
    5aac:	a94153f3 	ldp	x19, x20, [sp, #16]
    5ab0:	a9425bf5 	ldp	x21, x22, [sp, #32]
    5ab4:	a94363f7 	ldp	x23, x24, [sp, #48]
    5ab8:	a8c47bfd 	ldp	x29, x30, [sp], #64
    5abc:	17fff5fd 	b	32b0 <free@plt>
    5ac0:	aa1303e1 	mov	x1, x19
    5ac4:	2a1703e0 	mov	w0, w23
    5ac8:	d2800402 	mov	x2, #0x20                  	// #32
    5acc:	97fff5b5 	bl	31a0 <write@plt>
    5ad0:	f100801f 	cmp	x0, #0x20
    5ad4:	54fff6a1 	b.ne	59a8 <ferror@plt+0x24b8>  // b.any
    5ad8:	2a1703e0 	mov	w0, w23
    5adc:	97fff5a5 	bl	3170 <close@plt>
    5ae0:	35fff640 	cbnz	w0, 59a8 <ferror@plt+0x24b8>
    5ae4:	17ffff87 	b	5900 <ferror@plt+0x2410>
    5ae8:	aa1403e4 	mov	x4, x20
    5aec:	aa1303e3 	mov	x3, x19
    5af0:	a94153f3 	ldp	x19, x20, [sp, #16]
    5af4:	90000022 	adrp	x2, 9000 <putsgent@@Base+0x670>
    5af8:	a9425bf5 	ldp	x21, x22, [sp, #32]
    5afc:	91154042 	add	x2, x2, #0x550
    5b00:	a94363f7 	ldp	x23, x24, [sp, #48]
    5b04:	52800021 	mov	w1, #0x1                   	// #1
    5b08:	a8c47bfd 	ldp	x29, x30, [sp], #64
    5b0c:	52800080 	mov	w0, #0x4                   	// #4
    5b10:	17fff5f8 	b	32f0 <__syslog_chk@plt>
    5b14:	d503201f 	nop
    5b18:	a9b87bfd 	stp	x29, x30, [sp, #-128]!
    5b1c:	910003fd 	mov	x29, sp
    5b20:	a9025bf5 	stp	x21, x22, [sp, #32]
    5b24:	d00000b6 	adrp	x22, 1b000 <putsgent@@Base+0x12670>
    5b28:	2a0003f5 	mov	w21, w0
    5b2c:	f947e6c3 	ldr	x3, [x22, #4040]
    5b30:	a90153f3 	stp	x19, x20, [sp, #16]
    5b34:	f9400060 	ldr	x0, [x3]
    5b38:	f9003fe0 	str	x0, [sp, #120]
    5b3c:	d2800000 	mov	x0, #0x0                   	// #0
    5b40:	a9046bf9 	stp	x25, x26, [sp, #64]
    5b44:	90000039 	adrp	x25, 9000 <putsgent@@Base+0x670>
    5b48:	9114e334 	add	x20, x25, #0x538
    5b4c:	12001c5a 	and	w26, w2, #0xff
    5b50:	aa1403e0 	mov	x0, x20
    5b54:	a90363f7 	stp	x23, x24, [sp, #48]
    5b58:	aa0103f8 	mov	x24, x1
    5b5c:	52800001 	mov	w1, #0x0                   	// #0
    5b60:	97fff5a4 	bl	31f0 <access@plt>
    5b64:	350005a0 	cbnz	w0, 5c18 <ferror@plt+0x2728>
    5b68:	7100035f 	cmp	w26, #0x0
    5b6c:	2a0003f3 	mov	w19, w0
    5b70:	1a9f17e1 	cset	w1, eq  // eq = none
    5b74:	aa1403e0 	mov	x0, x20
    5b78:	531f7821 	lsl	w1, w1, #1
    5b7c:	97fff651 	bl	34c0 <__open_2@plt>
    5b80:	2a0003f7 	mov	w23, w0
    5b84:	37f804e0 	tbnz	w0, #31, 5c20 <ferror@plt+0x2730>
    5b88:	d37b7eb4 	ubfiz	x20, x21, #5, #32
    5b8c:	52800002 	mov	w2, #0x0                   	// #0
    5b90:	aa1403e1 	mov	x1, x20
    5b94:	97fff4e7 	bl	2f30 <lseek@plt>
    5b98:	eb14001f 	cmp	x0, x20
    5b9c:	540000e1 	b.ne	5bb8 <ferror@plt+0x26c8>  // b.any
    5ba0:	aa1803e1 	mov	x1, x24
    5ba4:	2a1703e0 	mov	w0, w23
    5ba8:	d2800402 	mov	x2, #0x20                  	// #32
    5bac:	97fff5ed 	bl	3360 <read@plt>
    5bb0:	f100801f 	cmp	x0, #0x20
    5bb4:	540006a0 	b.eq	5c88 <ferror@plt+0x2798>  // b.none
    5bb8:	2a1703e0 	mov	w0, w23
    5bbc:	52800033 	mov	w19, #0x1                   	// #1
    5bc0:	97fff56c 	bl	3170 <close@plt>
    5bc4:	f947e6c0 	ldr	x0, [x22, #4040]
    5bc8:	f9403fe1 	ldr	x1, [sp, #120]
    5bcc:	f9400002 	ldr	x2, [x0]
    5bd0:	eb020021 	subs	x1, x1, x2
    5bd4:	d2800002 	mov	x2, #0x0                   	// #0
    5bd8:	54000e61 	b.ne	5da4 <ferror@plt+0x28b4>  // b.any
    5bdc:	2a1303e0 	mov	w0, w19
    5be0:	a94153f3 	ldp	x19, x20, [sp, #16]
    5be4:	a9425bf5 	ldp	x21, x22, [sp, #32]
    5be8:	a94363f7 	ldp	x23, x24, [sp, #48]
    5bec:	a9446bf9 	ldp	x25, x26, [sp, #64]
    5bf0:	a8c87bfd 	ldp	x29, x30, [sp], #128
    5bf4:	d65f03c0 	ret
    5bf8:	2a1703e0 	mov	w0, w23
    5bfc:	d2800402 	mov	x2, #0x20                  	// #32
    5c00:	97fff568 	bl	31a0 <write@plt>
    5c04:	f100801f 	cmp	x0, #0x20
    5c08:	540007c1 	b.ne	5d00 <ferror@plt+0x2810>  // b.any
    5c0c:	2a1703e0 	mov	w0, w23
    5c10:	97fff558 	bl	3170 <close@plt>
    5c14:	35000760 	cbnz	w0, 5d00 <ferror@plt+0x2810>
    5c18:	52800033 	mov	w19, #0x1                   	// #1
    5c1c:	17ffffea 	b	5bc4 <ferror@plt+0x26d4>
    5c20:	2a1503f3 	mov	w19, w21
    5c24:	d2800001 	mov	x1, #0x0                   	// #0
    5c28:	528000c0 	mov	w0, #0x6                   	// #6
    5c2c:	97fff62d 	bl	34e0 <setlocale@plt>
    5c30:	b4000980 	cbz	x0, 5d60 <ferror@plt+0x2870>
    5c34:	97fff543 	bl	3140 <strdup@plt>
    5c38:	aa0003f5 	mov	x21, x0
    5c3c:	b4000920 	cbz	x0, 5d60 <ferror@plt+0x2870>
    5c40:	f0000001 	adrp	x1, 8000 <ferror@plt+0x4b10>
    5c44:	528000c0 	mov	w0, #0x6                   	// #6
    5c48:	91394021 	add	x1, x1, #0xe50
    5c4c:	97fff625 	bl	34e0 <setlocale@plt>
    5c50:	aa1303e4 	mov	x4, x19
    5c54:	aa1403e3 	mov	x3, x20
    5c58:	52800021 	mov	w1, #0x1                   	// #1
    5c5c:	52800080 	mov	w0, #0x4                   	// #4
    5c60:	90000022 	adrp	x2, 9000 <putsgent@@Base+0x670>
    5c64:	91160042 	add	x2, x2, #0x580
    5c68:	97fff5a2 	bl	32f0 <__syslog_chk@plt>
    5c6c:	52800033 	mov	w19, #0x1                   	// #1
    5c70:	aa1503e1 	mov	x1, x21
    5c74:	528000c0 	mov	w0, #0x6                   	// #6
    5c78:	97fff61a 	bl	34e0 <setlocale@plt>
    5c7c:	aa1503e0 	mov	x0, x21
    5c80:	97fff58c 	bl	32b0 <free@plt>
    5c84:	17ffffd0 	b	5bc4 <ferror@plt+0x26d4>
    5c88:	79c00700 	ldrsh	w0, [x24, #2]
    5c8c:	34000200 	cbz	w0, 5ccc <ferror@plt+0x27dc>
    5c90:	79c00301 	ldrsh	w1, [x24]
    5c94:	6b00003f 	cmp	w1, w0
    5c98:	540001ab 	b.lt	5ccc <ferror@plt+0x27dc>  // b.tstop
    5c9c:	f9400f00 	ldr	x0, [x24, #24]
    5ca0:	b4000100 	cbz	x0, 5cc0 <ferror@plt+0x27d0>
    5ca4:	910143e0 	add	x0, sp, #0x50
    5ca8:	97fff4d2 	bl	2ff0 <time@plt>
    5cac:	a9410b00 	ldp	x0, x2, [x24, #16]
    5cb0:	f9402be1 	ldr	x1, [sp, #80]
    5cb4:	8b020000 	add	x0, x0, x2
    5cb8:	eb01001f 	cmp	x0, x1
    5cbc:	5400008b 	b.lt	5ccc <ferror@plt+0x27dc>  // b.tstop
    5cc0:	2a1703e0 	mov	w0, w23
    5cc4:	97fff52b 	bl	3170 <close@plt>
    5cc8:	17ffffbf 	b	5bc4 <ferror@plt+0x26d4>
    5ccc:	35fff77a 	cbnz	w26, 5bb8 <ferror@plt+0x26c8>
    5cd0:	a9411704 	ldp	x4, x5, [x24, #16]
    5cd4:	52800002 	mov	w2, #0x0                   	// #0
    5cd8:	a9400700 	ldp	x0, x1, [x24]
    5cdc:	a90587e0 	stp	x0, x1, [sp, #88]
    5ce0:	aa1403e1 	mov	x1, x20
    5ce4:	2a1703e0 	mov	w0, w23
    5ce8:	7900b3ff 	strh	wzr, [sp, #88]
    5cec:	a90697e4 	stp	x4, x5, [sp, #104]
    5cf0:	97fff490 	bl	2f30 <lseek@plt>
    5cf4:	910163e1 	add	x1, sp, #0x58
    5cf8:	eb14001f 	cmp	x0, x20
    5cfc:	54fff7e0 	b.eq	5bf8 <ferror@plt+0x2708>  // b.none
    5d00:	d2800001 	mov	x1, #0x0                   	// #0
    5d04:	528000c0 	mov	w0, #0x6                   	// #6
    5d08:	97fff5f6 	bl	34e0 <setlocale@plt>
    5d0c:	b40003c0 	cbz	x0, 5d84 <ferror@plt+0x2894>
    5d10:	97fff50c 	bl	3140 <strdup@plt>
    5d14:	aa0003f3 	mov	x19, x0
    5d18:	b4000360 	cbz	x0, 5d84 <ferror@plt+0x2894>
    5d1c:	f0000001 	adrp	x1, 8000 <ferror@plt+0x4b10>
    5d20:	528000c0 	mov	w0, #0x6                   	// #6
    5d24:	91394021 	add	x1, x1, #0xe50
    5d28:	97fff5ee 	bl	34e0 <setlocale@plt>
    5d2c:	9114e324 	add	x4, x25, #0x538
    5d30:	aa1503e3 	mov	x3, x21
    5d34:	52800021 	mov	w1, #0x1                   	// #1
    5d38:	52800080 	mov	w0, #0x4                   	// #4
    5d3c:	90000022 	adrp	x2, 9000 <putsgent@@Base+0x670>
    5d40:	91174042 	add	x2, x2, #0x5d0
    5d44:	97fff56b 	bl	32f0 <__syslog_chk@plt>
    5d48:	aa1303e1 	mov	x1, x19
    5d4c:	528000c0 	mov	w0, #0x6                   	// #6
    5d50:	97fff5e4 	bl	34e0 <setlocale@plt>
    5d54:	aa1303e0 	mov	x0, x19
    5d58:	97fff556 	bl	32b0 <free@plt>
    5d5c:	17ffff97 	b	5bb8 <ferror@plt+0x26c8>
    5d60:	aa1303e4 	mov	x4, x19
    5d64:	52800021 	mov	w1, #0x1                   	// #1
    5d68:	aa1403e3 	mov	x3, x20
    5d6c:	2a0103f3 	mov	w19, w1
    5d70:	90000022 	adrp	x2, 9000 <putsgent@@Base+0x670>
    5d74:	52800080 	mov	w0, #0x4                   	// #4
    5d78:	91160042 	add	x2, x2, #0x580
    5d7c:	97fff55d 	bl	32f0 <__syslog_chk@plt>
    5d80:	17ffff91 	b	5bc4 <ferror@plt+0x26d4>
    5d84:	9114e324 	add	x4, x25, #0x538
    5d88:	aa1503e3 	mov	x3, x21
    5d8c:	90000022 	adrp	x2, 9000 <putsgent@@Base+0x670>
    5d90:	52800021 	mov	w1, #0x1                   	// #1
    5d94:	91174042 	add	x2, x2, #0x5d0
    5d98:	52800080 	mov	w0, #0x4                   	// #4
    5d9c:	97fff555 	bl	32f0 <__syslog_chk@plt>
    5da0:	17ffff86 	b	5bb8 <ferror@plt+0x26c8>
    5da4:	97fff4ef 	bl	3160 <__stack_chk_fail@plt>
    5da8:	a9ac7bfd 	stp	x29, x30, [sp, #-320]!
    5dac:	910003fd 	mov	x29, sp
    5db0:	a90153f3 	stp	x19, x20, [sp, #16]
    5db4:	d00000b4 	adrp	x20, 1b000 <putsgent@@Base+0x12670>
    5db8:	aa0003f3 	mov	x19, x0
    5dbc:	f947e681 	ldr	x1, [x20, #4040]
    5dc0:	79c00000 	ldrsh	w0, [x0]
    5dc4:	f9400022 	ldr	x2, [x1]
    5dc8:	f9009fe2 	str	x2, [sp, #312]
    5dcc:	d2800002 	mov	x2, #0x0                   	// #0
    5dd0:	340003a0 	cbz	w0, 5e44 <ferror@plt+0x2954>
    5dd4:	91004260 	add	x0, x19, #0x10
    5dd8:	a9025bf5 	stp	x21, x22, [sp, #32]
    5ddc:	97fff465 	bl	2f70 <localtime@plt>
    5de0:	9100e3f5 	add	x21, sp, #0x38
    5de4:	aa0003f6 	mov	x22, x0
    5de8:	9100c3e0 	add	x0, sp, #0x30
    5dec:	97fff481 	bl	2ff0 <time@plt>
    5df0:	aa1603e3 	mov	x3, x22
    5df4:	aa1503e0 	mov	x0, x21
    5df8:	d2802001 	mov	x1, #0x100                 	// #256
    5dfc:	90000022 	adrp	x2, 9000 <putsgent@@Base+0x670>
    5e00:	91180042 	add	x2, x2, #0x600
    5e04:	97fff43b 	bl	2ef0 <strftime@plt>
    5e08:	79800263 	ldrsh	x3, [x19]
    5e0c:	528000a4 	mov	w4, #0x5                   	// #5
    5e10:	90000022 	adrp	x2, 9000 <putsgent@@Base+0x670>
    5e14:	90000021 	adrp	x1, 9000 <putsgent@@Base+0x670>
    5e18:	91182042 	add	x2, x2, #0x608
    5e1c:	91190021 	add	x1, x1, #0x640
    5e20:	d2800000 	mov	x0, #0x0                   	// #0
    5e24:	97fff53b 	bl	3310 <dcngettext@plt>
    5e28:	aa0003e1 	mov	x1, x0
    5e2c:	aa1303e4 	mov	x4, x19
    5e30:	aa1503e3 	mov	x3, x21
    5e34:	52800020 	mov	w0, #0x1                   	// #1
    5e38:	78c04482 	ldrsh	w2, [x4], #4
    5e3c:	97fff495 	bl	3090 <__printf_chk@plt>
    5e40:	a9425bf5 	ldp	x21, x22, [sp, #32]
    5e44:	f947e694 	ldr	x20, [x20, #4040]
    5e48:	f9409fe0 	ldr	x0, [sp, #312]
    5e4c:	f9400281 	ldr	x1, [x20]
    5e50:	eb010000 	subs	x0, x0, x1
    5e54:	d2800001 	mov	x1, #0x0                   	// #0
    5e58:	54000081 	b.ne	5e68 <ferror@plt+0x2978>  // b.any
    5e5c:	a94153f3 	ldp	x19, x20, [sp, #16]
    5e60:	a8d47bfd 	ldp	x29, x30, [sp], #320
    5e64:	d65f03c0 	ret
    5e68:	a9025bf5 	stp	x21, x22, [sp, #32]
    5e6c:	97fff4bd 	bl	3160 <__stack_chk_fail@plt>
    5e70:	a9bc7bfd 	stp	x29, x30, [sp, #-64]!
    5e74:	910003fd 	mov	x29, sp
    5e78:	a90153f3 	stp	x19, x20, [sp, #16]
    5e7c:	aa0103f4 	mov	x20, x1
    5e80:	a9025bf5 	stp	x21, x22, [sp, #32]
    5e84:	aa0003f5 	mov	x21, x0
    5e88:	90000020 	adrp	x0, 9000 <putsgent@@Base+0x670>
    5e8c:	91072000 	add	x0, x0, #0x1c8
    5e90:	f9001fe1 	str	x1, [sp, #56]
    5e94:	940007cf 	bl	7dd0 <ferror@plt+0x48e0>
    5e98:	b40000a0 	cbz	x0, 5eac <ferror@plt+0x29bc>
    5e9c:	aa0003f3 	mov	x19, x0
    5ea0:	52800001 	mov	w1, #0x0                   	// #0
    5ea4:	97fff4d3 	bl	31f0 <access@plt>
    5ea8:	340000a0 	cbz	w0, 5ebc <ferror@plt+0x29cc>
    5eac:	a94153f3 	ldp	x19, x20, [sp, #16]
    5eb0:	a9425bf5 	ldp	x21, x22, [sp, #32]
    5eb4:	a8c47bfd 	ldp	x29, x30, [sp], #64
    5eb8:	d65f03c0 	ret
    5ebc:	aa1303e0 	mov	x0, x19
    5ec0:	52808021 	mov	w1, #0x401                 	// #1025
    5ec4:	97fff453 	bl	3010 <open@plt>
    5ec8:	2a0003f6 	mov	w22, w0
    5ecc:	3100041f 	cmn	w0, #0x1
    5ed0:	54000640 	b.eq	5f98 <ferror@plt+0x2aa8>  // b.none
    5ed4:	aa1403e1 	mov	x1, x20
    5ed8:	d2803202 	mov	x2, #0x190                 	// #400
    5edc:	97fff4b1 	bl	31a0 <write@plt>
    5ee0:	f106401f 	cmp	x0, #0x190
    5ee4:	54000520 	b.eq	5f88 <ferror@plt+0x2a98>  // b.none
    5ee8:	d2800001 	mov	x1, #0x0                   	// #0
    5eec:	528000c0 	mov	w0, #0x6                   	// #6
    5ef0:	97fff57c 	bl	34e0 <setlocale@plt>
    5ef4:	b4000320 	cbz	x0, 5f58 <ferror@plt+0x2a68>
    5ef8:	97fff492 	bl	3140 <strdup@plt>
    5efc:	aa0003f4 	mov	x20, x0
    5f00:	b40002c0 	cbz	x0, 5f58 <ferror@plt+0x2a68>
    5f04:	f0000001 	adrp	x1, 8000 <ferror@plt+0x4b10>
    5f08:	528000c0 	mov	w0, #0x6                   	// #6
    5f0c:	91394021 	add	x1, x1, #0xe50
    5f10:	97fff574 	bl	34e0 <setlocale@plt>
    5f14:	aa1303e4 	mov	x4, x19
    5f18:	aa1503e3 	mov	x3, x21
    5f1c:	52800021 	mov	w1, #0x1                   	// #1
    5f20:	52800080 	mov	w0, #0x4                   	// #4
    5f24:	90000022 	adrp	x2, 9000 <putsgent@@Base+0x670>
    5f28:	9119e042 	add	x2, x2, #0x678
    5f2c:	97fff4f1 	bl	32f0 <__syslog_chk@plt>
    5f30:	aa1403e1 	mov	x1, x20
    5f34:	528000c0 	mov	w0, #0x6                   	// #6
    5f38:	97fff56a 	bl	34e0 <setlocale@plt>
    5f3c:	aa1403e0 	mov	x0, x20
    5f40:	97fff4dc 	bl	32b0 <free@plt>
    5f44:	2a1603e0 	mov	w0, w22
    5f48:	a94153f3 	ldp	x19, x20, [sp, #16]
    5f4c:	a9425bf5 	ldp	x21, x22, [sp, #32]
    5f50:	a8c47bfd 	ldp	x29, x30, [sp], #64
    5f54:	17fff487 	b	3170 <close@plt>
    5f58:	aa1303e4 	mov	x4, x19
    5f5c:	aa1503e3 	mov	x3, x21
    5f60:	52800021 	mov	w1, #0x1                   	// #1
    5f64:	52800080 	mov	w0, #0x4                   	// #4
    5f68:	90000022 	adrp	x2, 9000 <putsgent@@Base+0x670>
    5f6c:	9119e042 	add	x2, x2, #0x678
    5f70:	97fff4e0 	bl	32f0 <__syslog_chk@plt>
    5f74:	2a1603e0 	mov	w0, w22
    5f78:	a94153f3 	ldp	x19, x20, [sp, #16]
    5f7c:	a9425bf5 	ldp	x21, x22, [sp, #32]
    5f80:	a8c47bfd 	ldp	x29, x30, [sp], #64
    5f84:	17fff47b 	b	3170 <close@plt>
    5f88:	2a1603e0 	mov	w0, w22
    5f8c:	97fff479 	bl	3170 <close@plt>
    5f90:	35fffac0 	cbnz	w0, 5ee8 <ferror@plt+0x29f8>
    5f94:	17ffffc6 	b	5eac <ferror@plt+0x29bc>
    5f98:	d2800001 	mov	x1, #0x0                   	// #0
    5f9c:	528000c0 	mov	w0, #0x6                   	// #6
    5fa0:	97fff550 	bl	34e0 <setlocale@plt>
    5fa4:	b40002e0 	cbz	x0, 6000 <ferror@plt+0x2b10>
    5fa8:	97fff466 	bl	3140 <strdup@plt>
    5fac:	aa0003f4 	mov	x20, x0
    5fb0:	b4000280 	cbz	x0, 6000 <ferror@plt+0x2b10>
    5fb4:	f0000001 	adrp	x1, 8000 <ferror@plt+0x4b10>
    5fb8:	528000c0 	mov	w0, #0x6                   	// #6
    5fbc:	91394021 	add	x1, x1, #0xe50
    5fc0:	97fff548 	bl	34e0 <setlocale@plt>
    5fc4:	aa1303e4 	mov	x4, x19
    5fc8:	aa1503e3 	mov	x3, x21
    5fcc:	90000022 	adrp	x2, 9000 <putsgent@@Base+0x670>
    5fd0:	9119e042 	add	x2, x2, #0x678
    5fd4:	52800021 	mov	w1, #0x1                   	// #1
    5fd8:	52800080 	mov	w0, #0x4                   	// #4
    5fdc:	97fff4c5 	bl	32f0 <__syslog_chk@plt>
    5fe0:	aa1403e1 	mov	x1, x20
    5fe4:	528000c0 	mov	w0, #0x6                   	// #6
    5fe8:	97fff53e 	bl	34e0 <setlocale@plt>
    5fec:	aa1403e0 	mov	x0, x20
    5ff0:	a94153f3 	ldp	x19, x20, [sp, #16]
    5ff4:	a9425bf5 	ldp	x21, x22, [sp, #32]
    5ff8:	a8c47bfd 	ldp	x29, x30, [sp], #64
    5ffc:	17fff4ad 	b	32b0 <free@plt>
    6000:	aa1303e4 	mov	x4, x19
    6004:	aa1503e3 	mov	x3, x21
    6008:	a94153f3 	ldp	x19, x20, [sp, #16]
    600c:	f0000002 	adrp	x2, 9000 <putsgent@@Base+0x670>
    6010:	a9425bf5 	ldp	x21, x22, [sp, #32]
    6014:	9119e042 	add	x2, x2, #0x678
    6018:	a8c47bfd 	ldp	x29, x30, [sp], #64
    601c:	52800021 	mov	w1, #0x1                   	// #1
    6020:	52800080 	mov	w0, #0x4                   	// #4
    6024:	17fff4b3 	b	32f0 <__syslog_chk@plt>
    6028:	a9bc7bfd 	stp	x29, x30, [sp, #-64]!
    602c:	910003fd 	mov	x29, sp
    6030:	a90153f3 	stp	x19, x20, [sp, #16]
    6034:	b00000b4 	adrp	x20, 1b000 <putsgent@@Base+0x12670>
    6038:	aa0003f3 	mov	x19, x0
    603c:	f947e680 	ldr	x0, [x20, #4040]
    6040:	f9400001 	ldr	x1, [x0]
    6044:	f9001fe1 	str	x1, [sp, #56]
    6048:	d2800001 	mov	x1, #0x0                   	// #0
    604c:	b4000453 	cbz	x19, 60d4 <ferror@plt+0x2be4>
    6050:	f90013f5 	str	x21, [sp, #32]
    6054:	97fff4fb 	bl	3440 <__errno_location@plt>
    6058:	aa0003f5 	mov	x21, x0
    605c:	9100c3e1 	add	x1, sp, #0x30
    6060:	aa1303e0 	mov	x0, x19
    6064:	52800142 	mov	w2, #0xa                   	// #10
    6068:	b90002bf 	str	wzr, [x21]
    606c:	97fff37d 	bl	2e60 <strtoll@plt>
    6070:	39400261 	ldrb	w1, [x19]
    6074:	34000081 	cbz	w1, 6084 <ferror@plt+0x2b94>
    6078:	f9401be1 	ldr	x1, [sp, #48]
    607c:	39400021 	ldrb	w1, [x1]
    6080:	340001a1 	cbz	w1, 60b4 <ferror@plt+0x2bc4>
    6084:	aa1303e0 	mov	x0, x19
    6088:	94000504 	bl	7498 <ferror@plt+0x3fa8>
    608c:	f94013f5 	ldr	x21, [sp, #32]
    6090:	f947e694 	ldr	x20, [x20, #4040]
    6094:	f9401fe1 	ldr	x1, [sp, #56]
    6098:	f9400282 	ldr	x2, [x20]
    609c:	eb020021 	subs	x1, x1, x2
    60a0:	d2800002 	mov	x2, #0x0                   	// #0
    60a4:	540001c1 	b.ne	60dc <ferror@plt+0x2bec>  // b.any
    60a8:	a94153f3 	ldp	x19, x20, [sp, #16]
    60ac:	a8c47bfd 	ldp	x29, x30, [sp], #64
    60b0:	d65f03c0 	ret
    60b4:	b94002a1 	ldr	w1, [x21]
    60b8:	7100883f 	cmp	w1, #0x22
    60bc:	54fffe40 	b.eq	6084 <ferror@plt+0x2b94>  // b.none
    60c0:	f2607c1f 	tst	x0, #0xffffffff00000000
    60c4:	54fffe01 	b.ne	6084 <ferror@plt+0x2b94>  // b.any
    60c8:	9400055c 	bl	7638 <ferror@plt+0x4148>
    60cc:	f94013f5 	ldr	x21, [sp, #32]
    60d0:	17fffff0 	b	6090 <ferror@plt+0x2ba0>
    60d4:	d2800000 	mov	x0, #0x0                   	// #0
    60d8:	17ffffee 	b	6090 <ferror@plt+0x2ba0>
    60dc:	f90013f5 	str	x21, [sp, #32]
    60e0:	97fff420 	bl	3160 <__stack_chk_fail@plt>
    60e4:	d503201f 	nop
    60e8:	d2840a0c 	mov	x12, #0x2050                	// #8272
    60ec:	cb2c63ff 	sub	sp, sp, x12
    60f0:	a9007bfd 	stp	x29, x30, [sp]
    60f4:	910003fd 	mov	x29, sp
    60f8:	a9025bf5 	stp	x21, x22, [sp, #32]
    60fc:	b00000b5 	adrp	x21, 1b000 <putsgent@@Base+0x12670>
    6100:	f947e6a1 	ldr	x1, [x21, #4040]
    6104:	a90153f3 	stp	x19, x20, [sp, #16]
    6108:	aa0003f4 	mov	x20, x0
    610c:	f9400022 	ldr	x2, [x1]
    6110:	f91027e2 	str	x2, [sp, #8264]
    6114:	d2800002 	mov	x2, #0x0                   	// #0
    6118:	f0000000 	adrp	x0, 9000 <putsgent@@Base+0x670>
    611c:	911a8000 	add	x0, x0, #0x6a0
    6120:	9400072c 	bl	7dd0 <ferror@plt+0x48e0>
    6124:	b40009a0 	cbz	x0, 6258 <ferror@plt+0x2d68>
    6128:	aa0003f3 	mov	x19, x0
    612c:	aa1403e0 	mov	x0, x20
    6130:	97fff3e4 	bl	30c0 <getpwnam@plt>
    6134:	aa0003f4 	mov	x20, x0
    6138:	b4000900 	cbz	x0, 6258 <ferror@plt+0x2d68>
    613c:	39400260 	ldrb	w0, [x19]
    6140:	7100bc1f 	cmp	w0, #0x2f
    6144:	540006a1 	b.ne	6218 <ferror@plt+0x2d28>  // b.any
    6148:	aa1303e0 	mov	x0, x19
    614c:	f0000001 	adrp	x1, 9000 <putsgent@@Base+0x670>
    6150:	911ae021 	add	x1, x1, #0x6b8
    6154:	97fff39f 	bl	2fd0 <fopen@plt>
    6158:	aa0003f6 	mov	x22, x0
    615c:	b40007e0 	cbz	x0, 6258 <ferror@plt+0x2d68>
    6160:	910123f3 	add	x19, sp, #0x48
    6164:	aa1603e2 	mov	x2, x22
    6168:	aa1303e0 	mov	x0, x19
    616c:	52840001 	mov	w1, #0x2000                	// #8192
    6170:	f9001bf7 	str	x23, [sp, #48]
    6174:	97fff4cf 	bl	34b0 <fgets@plt>
    6178:	91011ff7 	add	x23, sp, #0x47
    617c:	eb00027f 	cmp	x19, x0
    6180:	54000481 	b.ne	6210 <ferror@plt+0x2d20>  // b.any
    6184:	d503201f 	nop
    6188:	97fff316 	bl	2de0 <strlen@plt>
    618c:	aa0003e1 	mov	x1, x0
    6190:	aa1303e0 	mov	x0, x19
    6194:	38216aff 	strb	wzr, [x23, x1]
    6198:	f9401681 	ldr	x1, [x20, #40]
    619c:	97fff42d 	bl	3250 <strcmp@plt>
    61a0:	35000240 	cbnz	w0, 61e8 <ferror@plt+0x2cf8>
    61a4:	52800033 	mov	w19, #0x1                   	// #1
    61a8:	aa1603e0 	mov	x0, x22
    61ac:	97fff381 	bl	2fb0 <fclose@plt>
    61b0:	f9401bf7 	ldr	x23, [sp, #48]
    61b4:	f947e6b5 	ldr	x21, [x21, #4040]
    61b8:	f95027e0 	ldr	x0, [sp, #8264]
    61bc:	f94002a1 	ldr	x1, [x21]
    61c0:	eb010000 	subs	x0, x0, x1
    61c4:	d2800001 	mov	x1, #0x0                   	// #0
    61c8:	540004c1 	b.ne	6260 <ferror@plt+0x2d70>  // b.any
    61cc:	2a1303e0 	mov	w0, w19
    61d0:	d2840a0c 	mov	x12, #0x2050                	// #8272
    61d4:	a9407bfd 	ldp	x29, x30, [sp]
    61d8:	a94153f3 	ldp	x19, x20, [sp, #16]
    61dc:	a9425bf5 	ldp	x21, x22, [sp, #32]
    61e0:	8b2c63ff 	add	sp, sp, x12
    61e4:	d65f03c0 	ret
    61e8:	f9400281 	ldr	x1, [x20]
    61ec:	aa1303e0 	mov	x0, x19
    61f0:	97fff418 	bl	3250 <strcmp@plt>
    61f4:	34fffd80 	cbz	w0, 61a4 <ferror@plt+0x2cb4>
    61f8:	aa1603e2 	mov	x2, x22
    61fc:	aa1303e0 	mov	x0, x19
    6200:	52840001 	mov	w1, #0x2000                	// #8192
    6204:	97fff4ab 	bl	34b0 <fgets@plt>
    6208:	eb00027f 	cmp	x19, x0
    620c:	54fffbe0 	b.eq	6188 <ferror@plt+0x2c98>  // b.none
    6210:	52800013 	mov	w19, #0x0                   	// #0
    6214:	17ffffe5 	b	61a8 <ferror@plt+0x2cb8>
    6218:	f9401285 	ldr	x5, [x20, #32]
    621c:	aa1303e6 	mov	x6, x19
    6220:	f0000004 	adrp	x4, 9000 <putsgent@@Base+0x670>
    6224:	911ac084 	add	x4, x4, #0x6b0
    6228:	910123f3 	add	x19, sp, #0x48
    622c:	d2840003 	mov	x3, #0x2000                	// #8192
    6230:	52800022 	mov	w2, #0x1                   	// #1
    6234:	aa0303e1 	mov	x1, x3
    6238:	aa1303e0 	mov	x0, x19
    623c:	97fff355 	bl	2f90 <__snprintf_chk@plt>
    6240:	aa1303e0 	mov	x0, x19
    6244:	52800001 	mov	w1, #0x0                   	// #0
    6248:	97fff3ea 	bl	31f0 <access@plt>
    624c:	7100001f 	cmp	w0, #0x0
    6250:	1a9f17f3 	cset	w19, eq  // eq = none
    6254:	17ffffd8 	b	61b4 <ferror@plt+0x2cc4>
    6258:	52800013 	mov	w19, #0x0                   	// #0
    625c:	17ffffd6 	b	61b4 <ferror@plt+0x2cc4>
    6260:	f9001bf7 	str	x23, [sp, #48]
    6264:	97fff3bf 	bl	3160 <__stack_chk_fail@plt>
    6268:	a9be7bfd 	stp	x29, x30, [sp, #-32]!
    626c:	910003fd 	mov	x29, sp
    6270:	a90153f3 	stp	x19, x20, [sp, #16]
    6274:	aa0003f3 	mov	x19, x0
    6278:	aa0103f4 	mov	x20, x1
    627c:	14000003 	b	6288 <ferror@plt+0x2d98>
    6280:	f1000694 	subs	x20, x20, #0x1
    6284:	9a930673 	cinc	x19, x19, ne  // ne = any
    6288:	aa1303e1 	mov	x1, x19
    628c:	d2800022 	mov	x2, #0x1                   	// #1
    6290:	52800000 	mov	w0, #0x0                   	// #0
    6294:	97fff433 	bl	3360 <read@plt>
    6298:	f100041f 	cmp	x0, #0x1
    629c:	540000c1 	b.ne	62b4 <ferror@plt+0x2dc4>  // b.any
    62a0:	39400260 	ldrb	w0, [x19]
    62a4:	35fffee0 	cbnz	w0, 6280 <ferror@plt+0x2d90>
    62a8:	a94153f3 	ldp	x19, x20, [sp, #16]
    62ac:	a8c27bfd 	ldp	x29, x30, [sp], #32
    62b0:	d65f03c0 	ret
    62b4:	52800020 	mov	w0, #0x1                   	// #1
    62b8:	97fff2d6 	bl	2e10 <exit@plt>
    62bc:	d503201f 	nop
    62c0:	a9b47bfd 	stp	x29, x30, [sp, #-192]!
    62c4:	910003fd 	mov	x29, sp
    62c8:	a90153f3 	stp	x19, x20, [sp, #16]
    62cc:	b00000b4 	adrp	x20, 1b000 <putsgent@@Base+0x12670>
    62d0:	aa0103f3 	mov	x19, x1
    62d4:	f947e685 	ldr	x5, [x20, #4040]
    62d8:	a9025bf5 	stp	x21, x22, [sp, #32]
    62dc:	910263f6 	add	x22, sp, #0x98
    62e0:	aa0003f5 	mov	x21, x0
    62e4:	f94000a0 	ldr	x0, [x5]
    62e8:	f9005fe0 	str	x0, [sp, #184]
    62ec:	d2800000 	mov	x0, #0x0                   	// #0
    62f0:	aa1603e0 	mov	x0, x22
    62f4:	d2800401 	mov	x1, #0x20                  	// #32
    62f8:	a90363f7 	stp	x23, x24, [sp, #48]
    62fc:	aa0303f7 	mov	x23, x3
    6300:	d284b018 	mov	x24, #0x2580                	// #9600
    6304:	a9046bf9 	stp	x25, x26, [sp, #64]
    6308:	aa0203fa 	mov	x26, x2
    630c:	aa0403f9 	mov	x25, x4
    6310:	f9002bf8 	str	x24, [sp, #80]
    6314:	97ffffd5 	bl	6268 <ferror@plt+0x2d78>
    6318:	aa1a03e1 	mov	x1, x26
    631c:	aa1303e0 	mov	x0, x19
    6320:	97ffffd2 	bl	6268 <ferror@plt+0x2d78>
    6324:	aa1903e1 	mov	x1, x25
    6328:	aa1703e0 	mov	x0, x23
    632c:	97ffffcf 	bl	6268 <ferror@plt+0x2d78>
    6330:	aa1703e0 	mov	x0, x23
    6334:	528005e1 	mov	w1, #0x2f                  	// #47
    6338:	97fff3e6 	bl	32d0 <strchr@plt>
    633c:	b40000a0 	cbz	x0, 6350 <ferror@plt+0x2e60>
    6340:	3800141f 	strb	wzr, [x0], #1
    6344:	910143e1 	add	x1, sp, #0x50
    6348:	940007e6 	bl	82e0 <ferror@plt+0x4df0>
    634c:	34000900 	cbz	w0, 646c <ferror@plt+0x2f7c>
    6350:	f9402be1 	ldr	x1, [sp, #80]
    6354:	52800023 	mov	w3, #0x1                   	// #1
    6358:	f100c83f 	cmp	x1, #0x32
    635c:	540002a0 	b.eq	63b0 <ferror@plt+0x2ec0>  // b.none
    6360:	f0000006 	adrp	x6, 9000 <putsgent@@Base+0x670>
    6364:	911b00c2 	add	x2, x6, #0x6c0
    6368:	91002042 	add	x2, x2, #0x8
    636c:	52800003 	mov	w3, #0x0                   	// #0
    6370:	b9800444 	ldrsw	x4, [x2, #4]
    6374:	11000463 	add	w3, w3, #0x1
    6378:	aa0203e5 	mov	x5, x2
    637c:	eb01009f 	cmp	x4, x1
    6380:	540000e0 	b.eq	639c <ferror@plt+0x2eac>  // b.none
    6384:	b94000a0 	ldr	w0, [x5]
    6388:	91002042 	add	x2, x2, #0x8
    638c:	3100041f 	cmn	w0, #0x1
    6390:	54ffff01 	b.ne	6370 <ferror@plt+0x2e80>  // b.any
    6394:	528001b8 	mov	w24, #0xd                   	// #13
    6398:	14000007 	b	63b4 <ferror@plt+0x2ec4>
    639c:	911b00c6 	add	x6, x6, #0x6c0
    63a0:	937d7c63 	sbfiz	x3, x3, #3, #32
    63a4:	b86368c3 	ldr	w3, [x6, x3]
    63a8:	3100047f 	cmn	w3, #0x1
    63ac:	54ffff40 	b.eq	6394 <ferror@plt+0x2ea4>  // b.none
    63b0:	2a0303f8 	mov	w24, w3
    63b4:	910163f7 	add	x23, sp, #0x58
    63b8:	52800000 	mov	w0, #0x0                   	// #0
    63bc:	aa1703e1 	mov	x1, x23
    63c0:	97fff2e0 	bl	2f40 <tcgetattr@plt>
    63c4:	294c13e3 	ldp	w3, w4, [sp, #96]
    63c8:	128201e0 	mov	w0, #0xffffeff0            	// #-4112
    63cc:	f9402fe5 	ldr	x5, [sp, #88]
    63d0:	0a000063 	and	w3, w3, w0
    63d4:	d280a000 	mov	x0, #0x500                 	// #1280
    63d8:	2a180063 	orr	w3, w3, w24
    63dc:	52800346 	mov	w6, #0x1a                  	// #26
    63e0:	f2c000a0 	movk	x0, #0x5, lsl #32
    63e4:	2a060084 	orr	w4, w4, w6
    63e8:	aa0000a5 	orr	x5, x5, x0
    63ec:	aa1703e2 	mov	x2, x23
    63f0:	52800001 	mov	w1, #0x0                   	// #0
    63f4:	52800000 	mov	w0, #0x0                   	// #0
    63f8:	f9002fe5 	str	x5, [sp, #88]
    63fc:	290c13e3 	stp	w3, w4, [sp, #96]
    6400:	97fff3dc 	bl	3370 <tcsetattr@plt>
    6404:	aa1303e0 	mov	x0, x19
    6408:	97fff32e 	bl	30c0 <getpwnam@plt>
    640c:	aa0003e1 	mov	x1, x0
    6410:	52800000 	mov	w0, #0x0                   	// #0
    6414:	b4000141 	cbz	x1, 643c <ferror@plt+0x2f4c>
    6418:	b9401021 	ldr	w1, [x1, #16]
    641c:	aa1303e3 	mov	x3, x19
    6420:	aa1603e2 	mov	x2, x22
    6424:	aa1503e0 	mov	x0, x21
    6428:	7100003f 	cmp	w1, #0x0
    642c:	1a9f17e1 	cset	w1, eq  // eq = none
    6430:	97fff298 	bl	2e90 <ruserok@plt>
    6434:	7100001f 	cmp	w0, #0x0
    6438:	1a9f17e0 	cset	w0, eq  // eq = none
    643c:	f947e694 	ldr	x20, [x20, #4040]
    6440:	f9405fe1 	ldr	x1, [sp, #184]
    6444:	f9400282 	ldr	x2, [x20]
    6448:	eb020021 	subs	x1, x1, x2
    644c:	d2800002 	mov	x2, #0x0                   	// #0
    6450:	54000141 	b.ne	6478 <ferror@plt+0x2f88>  // b.any
    6454:	a94153f3 	ldp	x19, x20, [sp, #16]
    6458:	a9425bf5 	ldp	x21, x22, [sp, #32]
    645c:	a94363f7 	ldp	x23, x24, [sp, #48]
    6460:	a9446bf9 	ldp	x25, x26, [sp, #64]
    6464:	a8cc7bfd 	ldp	x29, x30, [sp], #192
    6468:	d65f03c0 	ret
    646c:	aa1803e1 	mov	x1, x24
    6470:	f9002bf8 	str	x24, [sp, #80]
    6474:	17ffffbb 	b	6360 <ferror@plt+0x2e70>
    6478:	97fff33a 	bl	3160 <__stack_chk_fail@plt>
    647c:	d503201f 	nop
    6480:	a9bd7bfd 	stp	x29, x30, [sp, #-48]!
    6484:	910003fd 	mov	x29, sp
    6488:	a90153f3 	stp	x19, x20, [sp, #16]
    648c:	aa0003f3 	mov	x19, x0
    6490:	b9401400 	ldr	w0, [x0, #20]
    6494:	97fff353 	bl	31e0 <setgid@plt>
    6498:	3100041f 	cmn	w0, #0x1
    649c:	54000140 	b.eq	64c4 <ferror@plt+0x2fd4>  // b.none
    64a0:	b9401661 	ldr	w1, [x19, #20]
    64a4:	f9400260 	ldr	x0, [x19]
    64a8:	97fff236 	bl	2d80 <initgroups@plt>
    64ac:	3100041f 	cmn	w0, #0x1
    64b0:	52800000 	mov	w0, #0x0                   	// #0
    64b4:	54000560 	b.eq	6560 <ferror@plt+0x3070>  // b.none
    64b8:	a94153f3 	ldp	x19, x20, [sp, #16]
    64bc:	a8c37bfd 	ldp	x29, x30, [sp], #48
    64c0:	d65f03c0 	ret
    64c4:	a9025bf5 	stp	x21, x22, [sp, #32]
    64c8:	97fff3de 	bl	3440 <__errno_location@plt>
    64cc:	aa0003e1 	mov	x1, x0
    64d0:	f0000000 	adrp	x0, 9000 <putsgent@@Base+0x670>
    64d4:	911d0000 	add	x0, x0, #0x740
    64d8:	b9400035 	ldr	w21, [x1]
    64dc:	97fff25d 	bl	2e50 <perror@plt>
    64e0:	d2800001 	mov	x1, #0x0                   	// #0
    64e4:	528000c0 	mov	w0, #0x6                   	// #6
    64e8:	97fff3fe 	bl	34e0 <setlocale@plt>
    64ec:	b4000740 	cbz	x0, 65d4 <ferror@plt+0x30e4>
    64f0:	97fff314 	bl	3140 <strdup@plt>
    64f4:	aa0003f4 	mov	x20, x0
    64f8:	b40006e0 	cbz	x0, 65d4 <ferror@plt+0x30e4>
    64fc:	d0000001 	adrp	x1, 8000 <ferror@plt+0x4b10>
    6500:	91394021 	add	x1, x1, #0xe50
    6504:	528000c0 	mov	w0, #0x6                   	// #6
    6508:	97fff3f6 	bl	34e0 <setlocale@plt>
    650c:	f9400276 	ldr	x22, [x19]
    6510:	2a1503e0 	mov	w0, w21
    6514:	b9401673 	ldr	w19, [x19, #20]
    6518:	97fff30e 	bl	3150 <strerror@plt>
    651c:	f0000002 	adrp	x2, 9000 <putsgent@@Base+0x670>
    6520:	aa0003e5 	mov	x5, x0
    6524:	aa1603e4 	mov	x4, x22
    6528:	2a1303e3 	mov	w3, w19
    652c:	911d2042 	add	x2, x2, #0x748
    6530:	52800021 	mov	w1, #0x1                   	// #1
    6534:	52800060 	mov	w0, #0x3                   	// #3
    6538:	97fff36e 	bl	32f0 <__syslog_chk@plt>
    653c:	aa1403e1 	mov	x1, x20
    6540:	528000c0 	mov	w0, #0x6                   	// #6
    6544:	97fff3e7 	bl	34e0 <setlocale@plt>
    6548:	aa1403e0 	mov	x0, x20
    654c:	97fff359 	bl	32b0 <free@plt>
    6550:	97fff26c 	bl	2f00 <closelog@plt>
    6554:	12800000 	mov	w0, #0xffffffff            	// #-1
    6558:	a9425bf5 	ldp	x21, x22, [sp, #32]
    655c:	17ffffd7 	b	64b8 <ferror@plt+0x2fc8>
    6560:	a9025bf5 	stp	x21, x22, [sp, #32]
    6564:	97fff3b7 	bl	3440 <__errno_location@plt>
    6568:	aa0003e1 	mov	x1, x0
    656c:	f0000000 	adrp	x0, 9000 <putsgent@@Base+0x670>
    6570:	911dc000 	add	x0, x0, #0x770
    6574:	b9400035 	ldr	w21, [x1]
    6578:	97fff236 	bl	2e50 <perror@plt>
    657c:	d2800001 	mov	x1, #0x0                   	// #0
    6580:	528000c0 	mov	w0, #0x6                   	// #6
    6584:	97fff3d7 	bl	34e0 <setlocale@plt>
    6588:	b4000400 	cbz	x0, 6608 <ferror@plt+0x3118>
    658c:	97fff2ed 	bl	3140 <strdup@plt>
    6590:	aa0003f4 	mov	x20, x0
    6594:	b40003a0 	cbz	x0, 6608 <ferror@plt+0x3118>
    6598:	d0000001 	adrp	x1, 8000 <ferror@plt+0x4b10>
    659c:	91394021 	add	x1, x1, #0xe50
    65a0:	528000c0 	mov	w0, #0x6                   	// #6
    65a4:	97fff3cf 	bl	34e0 <setlocale@plt>
    65a8:	f9400273 	ldr	x19, [x19]
    65ac:	2a1503e0 	mov	w0, w21
    65b0:	97fff2e8 	bl	3150 <strerror@plt>
    65b4:	aa0003e4 	mov	x4, x0
    65b8:	aa1303e3 	mov	x3, x19
    65bc:	f0000002 	adrp	x2, 9000 <putsgent@@Base+0x670>
    65c0:	52800021 	mov	w1, #0x1                   	// #1
    65c4:	911e0042 	add	x2, x2, #0x780
    65c8:	52800060 	mov	w0, #0x3                   	// #3
    65cc:	97fff349 	bl	32f0 <__syslog_chk@plt>
    65d0:	17ffffdb 	b	653c <ferror@plt+0x304c>
    65d4:	f9400274 	ldr	x20, [x19]
    65d8:	2a1503e0 	mov	w0, w21
    65dc:	b9401673 	ldr	w19, [x19, #20]
    65e0:	97fff2dc 	bl	3150 <strerror@plt>
    65e4:	aa1403e4 	mov	x4, x20
    65e8:	aa0003e5 	mov	x5, x0
    65ec:	2a1303e3 	mov	w3, w19
    65f0:	f0000002 	adrp	x2, 9000 <putsgent@@Base+0x670>
    65f4:	52800021 	mov	w1, #0x1                   	// #1
    65f8:	911d2042 	add	x2, x2, #0x748
    65fc:	52800060 	mov	w0, #0x3                   	// #3
    6600:	97fff33c 	bl	32f0 <__syslog_chk@plt>
    6604:	17ffffd3 	b	6550 <ferror@plt+0x3060>
    6608:	f9400273 	ldr	x19, [x19]
    660c:	2a1503e0 	mov	w0, w21
    6610:	97fff2d0 	bl	3150 <strerror@plt>
    6614:	aa0003e4 	mov	x4, x0
    6618:	aa1303e3 	mov	x3, x19
    661c:	f0000002 	adrp	x2, 9000 <putsgent@@Base+0x670>
    6620:	52800021 	mov	w1, #0x1                   	// #1
    6624:	911e0042 	add	x2, x2, #0x780
    6628:	52800060 	mov	w0, #0x3                   	// #3
    662c:	97fff331 	bl	32f0 <__syslog_chk@plt>
    6630:	17ffffc8 	b	6550 <ferror@plt+0x3060>
    6634:	d503201f 	nop
    6638:	a9bd7bfd 	stp	x29, x30, [sp, #-48]!
    663c:	910003fd 	mov	x29, sp
    6640:	a90153f3 	stp	x19, x20, [sp, #16]
    6644:	aa0003f3 	mov	x19, x0
    6648:	b9401000 	ldr	w0, [x0, #16]
    664c:	97fff1dd 	bl	2dc0 <setuid@plt>
    6650:	35000080 	cbnz	w0, 6660 <ferror@plt+0x3170>
    6654:	a94153f3 	ldp	x19, x20, [sp, #16]
    6658:	a8c37bfd 	ldp	x29, x30, [sp], #48
    665c:	d65f03c0 	ret
    6660:	a9025bf5 	stp	x21, x22, [sp, #32]
    6664:	97fff377 	bl	3440 <__errno_location@plt>
    6668:	aa0003e1 	mov	x1, x0
    666c:	f0000000 	adrp	x0, 9000 <putsgent@@Base+0x670>
    6670:	911ea000 	add	x0, x0, #0x7a8
    6674:	b9400035 	ldr	w21, [x1]
    6678:	97fff1f6 	bl	2e50 <perror@plt>
    667c:	d2800001 	mov	x1, #0x0                   	// #0
    6680:	528000c0 	mov	w0, #0x6                   	// #6
    6684:	97fff397 	bl	34e0 <setlocale@plt>
    6688:	b40003a0 	cbz	x0, 66fc <ferror@plt+0x320c>
    668c:	97fff2ad 	bl	3140 <strdup@plt>
    6690:	aa0003f4 	mov	x20, x0
    6694:	b4000340 	cbz	x0, 66fc <ferror@plt+0x320c>
    6698:	d0000001 	adrp	x1, 8000 <ferror@plt+0x4b10>
    669c:	91394021 	add	x1, x1, #0xe50
    66a0:	528000c0 	mov	w0, #0x6                   	// #6
    66a4:	97fff38f 	bl	34e0 <setlocale@plt>
    66a8:	f9400276 	ldr	x22, [x19]
    66ac:	2a1503e0 	mov	w0, w21
    66b0:	b9401273 	ldr	w19, [x19, #16]
    66b4:	97fff2a7 	bl	3150 <strerror@plt>
    66b8:	aa1603e4 	mov	x4, x22
    66bc:	aa0003e5 	mov	x5, x0
    66c0:	2a1303e3 	mov	w3, w19
    66c4:	52800021 	mov	w1, #0x1                   	// #1
    66c8:	52800060 	mov	w0, #0x3                   	// #3
    66cc:	f0000002 	adrp	x2, 9000 <putsgent@@Base+0x670>
    66d0:	911ec042 	add	x2, x2, #0x7b0
    66d4:	97fff307 	bl	32f0 <__syslog_chk@plt>
    66d8:	aa1403e1 	mov	x1, x20
    66dc:	528000c0 	mov	w0, #0x6                   	// #6
    66e0:	97fff380 	bl	34e0 <setlocale@plt>
    66e4:	aa1403e0 	mov	x0, x20
    66e8:	97fff2f2 	bl	32b0 <free@plt>
    66ec:	97fff205 	bl	2f00 <closelog@plt>
    66f0:	12800000 	mov	w0, #0xffffffff            	// #-1
    66f4:	a9425bf5 	ldp	x21, x22, [sp, #32]
    66f8:	17ffffd7 	b	6654 <ferror@plt+0x3164>
    66fc:	f9400274 	ldr	x20, [x19]
    6700:	2a1503e0 	mov	w0, w21
    6704:	b9401273 	ldr	w19, [x19, #16]
    6708:	97fff292 	bl	3150 <strerror@plt>
    670c:	aa1403e4 	mov	x4, x20
    6710:	aa0003e5 	mov	x5, x0
    6714:	2a1303e3 	mov	w3, w19
    6718:	f0000002 	adrp	x2, 9000 <putsgent@@Base+0x670>
    671c:	52800021 	mov	w1, #0x1                   	// #1
    6720:	911ec042 	add	x2, x2, #0x7b0
    6724:	52800060 	mov	w0, #0x3                   	// #3
    6728:	97fff2f2 	bl	32f0 <__syslog_chk@plt>
    672c:	17fffff0 	b	66ec <ferror@plt+0x31fc>
    6730:	a9be7bfd 	stp	x29, x30, [sp, #-32]!
    6734:	910003fd 	mov	x29, sp
    6738:	f9000bf3 	str	x19, [sp, #16]
    673c:	aa0003f3 	mov	x19, x0
    6740:	97ffff50 	bl	6480 <ferror@plt+0x2f90>
    6744:	37f800e0 	tbnz	w0, #31, 6760 <ferror@plt+0x3270>
    6748:	aa1303e0 	mov	x0, x19
    674c:	97ffffbb 	bl	6638 <ferror@plt+0x3148>
    6750:	131f7c00 	asr	w0, w0, #31
    6754:	f9400bf3 	ldr	x19, [sp, #16]
    6758:	a8c27bfd 	ldp	x29, x30, [sp], #32
    675c:	d65f03c0 	ret
    6760:	12800000 	mov	w0, #0xffffffff            	// #-1
    6764:	17fffffc 	b	6754 <ferror@plt+0x3264>
    6768:	a9be7bfd 	stp	x29, x30, [sp, #-32]!
    676c:	910003fd 	mov	x29, sp
    6770:	a90153f3 	stp	x19, x20, [sp, #16]
    6774:	aa0003f3 	mov	x19, x0
    6778:	f9401000 	ldr	x0, [x0, #32]
    677c:	97fff2c9 	bl	32a0 <chdir@plt>
    6780:	3100041f 	cmn	w0, #0x1
    6784:	540006a0 	b.eq	6858 <ferror@plt+0x3368>  // b.none
    6788:	f9401261 	ldr	x1, [x19, #32]
    678c:	f0000000 	adrp	x0, 9000 <putsgent@@Base+0x670>
    6790:	91210000 	add	x0, x0, #0x840
    6794:	97fffb0d 	bl	53c8 <ferror@plt+0x1ed8>
    6798:	f9401661 	ldr	x1, [x19, #40]
    679c:	b4000401 	cbz	x1, 681c <ferror@plt+0x332c>
    67a0:	39400020 	ldrb	w0, [x1]
    67a4:	340003c0 	cbz	w0, 681c <ferror@plt+0x332c>
    67a8:	f0000000 	adrp	x0, 9000 <putsgent@@Base+0x670>
    67ac:	9122e000 	add	x0, x0, #0x8b8
    67b0:	97fffb06 	bl	53c8 <ferror@plt+0x1ed8>
    67b4:	f9400261 	ldr	x1, [x19]
    67b8:	f0000000 	adrp	x0, 9000 <putsgent@@Base+0x670>
    67bc:	91230000 	add	x0, x0, #0x8c0
    67c0:	97fffb02 	bl	53c8 <ferror@plt+0x1ed8>
    67c4:	f9400261 	ldr	x1, [x19]
    67c8:	f0000000 	adrp	x0, 9000 <putsgent@@Base+0x670>
    67cc:	91232000 	add	x0, x0, #0x8c8
    67d0:	97fffafe 	bl	53c8 <ferror@plt+0x1ed8>
    67d4:	b9401262 	ldr	w2, [x19, #16]
    67d8:	f0000001 	adrp	x1, 9000 <putsgent@@Base+0x670>
    67dc:	911fa021 	add	x1, x1, #0x7e8
    67e0:	f0000000 	adrp	x0, 9000 <putsgent@@Base+0x670>
    67e4:	7100005f 	cmp	w2, #0x0
    67e8:	911f6000 	add	x0, x0, #0x7d8
    67ec:	9a810000 	csel	x0, x0, x1, eq  // eq = none
    67f0:	94000578 	bl	7dd0 <ferror@plt+0x48e0>
    67f4:	aa0003f4 	mov	x20, x0
    67f8:	b4000600 	cbz	x0, 68b8 <ferror@plt+0x33c8>
    67fc:	528007a1 	mov	w1, #0x3d                  	// #61
    6800:	97fff2b4 	bl	32d0 <strchr@plt>
    6804:	b40001e0 	cbz	x0, 6840 <ferror@plt+0x3350>
    6808:	aa1403e0 	mov	x0, x20
    680c:	d2800001 	mov	x1, #0x0                   	// #0
    6810:	a94153f3 	ldp	x19, x20, [sp, #16]
    6814:	a8c27bfd 	ldp	x29, x30, [sp], #32
    6818:	17fffaec 	b	53c8 <ferror@plt+0x1ed8>
    681c:	aa0103e0 	mov	x0, x1
    6820:	97fff2a4 	bl	32b0 <free@plt>
    6824:	d00000a0 	adrp	x0, 1c000 <putsgent@@Base+0x13670>
    6828:	9102e000 	add	x0, x0, #0xb8
    682c:	91002000 	add	x0, x0, #0x8
    6830:	94000408 	bl	7850 <ferror@plt+0x4360>
    6834:	aa0003e1 	mov	x1, x0
    6838:	f9001660 	str	x0, [x19, #40]
    683c:	17ffffdb 	b	67a8 <ferror@plt+0x32b8>
    6840:	aa1403e1 	mov	x1, x20
    6844:	f0000000 	adrp	x0, 9000 <putsgent@@Base+0x670>
    6848:	a94153f3 	ldp	x19, x20, [sp, #16]
    684c:	91234000 	add	x0, x0, #0x8d0
    6850:	a8c27bfd 	ldp	x29, x30, [sp], #32
    6854:	17fffadd 	b	53c8 <ferror@plt+0x1ed8>
    6858:	f0000000 	adrp	x0, 9000 <putsgent@@Base+0x670>
    685c:	9120e000 	add	x0, x0, #0x838
    6860:	9400056c 	bl	7e10 <ferror@plt+0x4920>
    6864:	72001c1f 	tst	w0, #0xff
    6868:	540003e0 	b.eq	68e4 <ferror@plt+0x33f4>  // b.none
    686c:	f0000000 	adrp	x0, 9000 <putsgent@@Base+0x670>
    6870:	91218000 	add	x0, x0, #0x860
    6874:	97fff28b 	bl	32a0 <chdir@plt>
    6878:	3100041f 	cmn	w0, #0x1
    687c:	54000340 	b.eq	68e4 <ferror@plt+0x33f4>  // b.none
    6880:	f0000001 	adrp	x1, 9000 <putsgent@@Base+0x670>
    6884:	91224021 	add	x1, x1, #0x890
    6888:	528000a2 	mov	w2, #0x5                   	// #5
    688c:	d2800000 	mov	x0, #0x0                   	// #0
    6890:	97fff2cc 	bl	33c0 <dcgettext@plt>
    6894:	97fff25f 	bl	3210 <puts@plt>
    6898:	f9401260 	ldr	x0, [x19, #32]
    689c:	97fff285 	bl	32b0 <free@plt>
    68a0:	d00000a0 	adrp	x0, 1c000 <putsgent@@Base+0x13670>
    68a4:	9102e000 	add	x0, x0, #0xb8
    68a8:	940003ea 	bl	7850 <ferror@plt+0x4360>
    68ac:	aa0003e1 	mov	x1, x0
    68b0:	f9001260 	str	x0, [x19, #32]
    68b4:	17ffffb6 	b	678c <ferror@plt+0x329c>
    68b8:	b9401262 	ldr	w2, [x19, #16]
    68bc:	f0000001 	adrp	x1, 9000 <putsgent@@Base+0x670>
    68c0:	a94153f3 	ldp	x19, x20, [sp, #16]
    68c4:	91208021 	add	x1, x1, #0x820
    68c8:	a8c27bfd 	ldp	x29, x30, [sp], #32
    68cc:	7100005f 	cmp	w2, #0x0
    68d0:	f0000000 	adrp	x0, 9000 <putsgent@@Base+0x670>
    68d4:	911fe000 	add	x0, x0, #0x7f8
    68d8:	9a810000 	csel	x0, x0, x1, eq  // eq = none
    68dc:	d2800001 	mov	x1, #0x0                   	// #0
    68e0:	17fffaba 	b	53c8 <ferror@plt+0x1ed8>
    68e4:	b00000a3 	adrp	x3, 1b000 <putsgent@@Base+0x12670>
    68e8:	528000a2 	mov	w2, #0x5                   	// #5
    68ec:	f0000001 	adrp	x1, 9000 <putsgent@@Base+0x670>
    68f0:	d2800000 	mov	x0, #0x0                   	// #0
    68f4:	f947d063 	ldr	x3, [x3, #4000]
    68f8:	91212021 	add	x1, x1, #0x848
    68fc:	f9400074 	ldr	x20, [x3]
    6900:	97fff2b0 	bl	33c0 <dcgettext@plt>
    6904:	f9401263 	ldr	x3, [x19, #32]
    6908:	aa0003e2 	mov	x2, x0
    690c:	52800021 	mov	w1, #0x1                   	// #1
    6910:	aa1403e0 	mov	x0, x20
    6914:	97fff24b 	bl	3240 <__fprintf_chk@plt>
    6918:	d2800001 	mov	x1, #0x0                   	// #0
    691c:	528000c0 	mov	w0, #0x6                   	// #6
    6920:	97fff2f0 	bl	34e0 <setlocale@plt>
    6924:	b40002e0 	cbz	x0, 6980 <ferror@plt+0x3490>
    6928:	97fff206 	bl	3140 <strdup@plt>
    692c:	aa0003f4 	mov	x20, x0
    6930:	b4000280 	cbz	x0, 6980 <ferror@plt+0x3490>
    6934:	d0000001 	adrp	x1, 8000 <ferror@plt+0x4b10>
    6938:	528000c0 	mov	w0, #0x6                   	// #6
    693c:	91394021 	add	x1, x1, #0xe50
    6940:	97fff2e8 	bl	34e0 <setlocale@plt>
    6944:	f9400264 	ldr	x4, [x19]
    6948:	52800021 	mov	w1, #0x1                   	// #1
    694c:	f9401263 	ldr	x3, [x19, #32]
    6950:	52800080 	mov	w0, #0x4                   	// #4
    6954:	f0000002 	adrp	x2, 9000 <putsgent@@Base+0x670>
    6958:	9121a042 	add	x2, x2, #0x868
    695c:	97fff265 	bl	32f0 <__syslog_chk@plt>
    6960:	aa1403e1 	mov	x1, x20
    6964:	528000c0 	mov	w0, #0x6                   	// #6
    6968:	97fff2de 	bl	34e0 <setlocale@plt>
    696c:	aa1403e0 	mov	x0, x20
    6970:	97fff250 	bl	32b0 <free@plt>
    6974:	97fff163 	bl	2f00 <closelog@plt>
    6978:	52800020 	mov	w0, #0x1                   	// #1
    697c:	97fff125 	bl	2e10 <exit@plt>
    6980:	f9400264 	ldr	x4, [x19]
    6984:	f0000002 	adrp	x2, 9000 <putsgent@@Base+0x670>
    6988:	f9401263 	ldr	x3, [x19, #32]
    698c:	9121a042 	add	x2, x2, #0x868
    6990:	52800021 	mov	w1, #0x1                   	// #1
    6994:	52800080 	mov	w0, #0x4                   	// #4
    6998:	97fff256 	bl	32f0 <__syslog_chk@plt>
    699c:	17fffff6 	b	6974 <ferror@plt+0x3484>
    69a0:	d11143ff 	sub	sp, sp, #0x450
    69a4:	a9007bfd 	stp	x29, x30, [sp]
    69a8:	910003fd 	mov	x29, sp
    69ac:	a90363f7 	stp	x23, x24, [sp, #48]
    69b0:	b00000b7 	adrp	x23, 1b000 <putsgent@@Base+0x12670>
    69b4:	f947e6e3 	ldr	x3, [x23, #4040]
    69b8:	a90153f3 	stp	x19, x20, [sp, #16]
    69bc:	aa0003f3 	mov	x19, x0
    69c0:	f9400060 	ldr	x0, [x3]
    69c4:	f90227e0 	str	x0, [sp, #1096]
    69c8:	d2800000 	mov	x0, #0x0                   	// #0
    69cc:	a9025bf5 	stp	x21, x22, [sp, #32]
    69d0:	aa0103f5 	mov	x21, x1
    69d4:	aa0203f6 	mov	x22, x2
    69d8:	97fff29a 	bl	3440 <__errno_location@plt>
    69dc:	aa0003f4 	mov	x20, x0
    69e0:	b4000853 	cbz	x19, 6ae8 <ferror@plt+0x35f8>
    69e4:	910123f8 	add	x24, sp, #0x48
    69e8:	b4000675 	cbz	x21, 6ab4 <ferror@plt+0x35c4>
    69ec:	aa1603e3 	mov	x3, x22
    69f0:	d2800002 	mov	x2, #0x0                   	// #0
    69f4:	aa1503e1 	mov	x1, x21
    69f8:	aa1303e0 	mov	x0, x19
    69fc:	97fff111 	bl	2e40 <execle@plt>
    6a00:	b9400295 	ldr	w21, [x20]
    6a04:	aa1303e0 	mov	x0, x19
    6a08:	528000a1 	mov	w1, #0x5                   	// #5
    6a0c:	97fff1f9 	bl	31f0 <access@plt>
    6a10:	340003a0 	cbz	w0, 6a84 <ferror@plt+0x3594>
    6a14:	528000a2 	mov	w2, #0x5                   	// #5
    6a18:	f0000001 	adrp	x1, 9000 <putsgent@@Base+0x670>
    6a1c:	d2800000 	mov	x0, #0x0                   	// #0
    6a20:	9123e021 	add	x1, x1, #0x8f8
    6a24:	97fff267 	bl	33c0 <dcgettext@plt>
    6a28:	aa0003e4 	mov	x4, x0
    6a2c:	d2808003 	mov	x3, #0x400                 	// #1024
    6a30:	aa1303e5 	mov	x5, x19
    6a34:	aa0303e1 	mov	x1, x3
    6a38:	aa1803e0 	mov	x0, x24
    6a3c:	52800022 	mov	w2, #0x1                   	// #1
    6a40:	97fff154 	bl	2f90 <__snprintf_chk@plt>
    6a44:	b9000295 	str	w21, [x20]
    6a48:	aa1803e0 	mov	x0, x24
    6a4c:	97fff101 	bl	2e50 <perror@plt>
    6a50:	f947e6e0 	ldr	x0, [x23, #4040]
    6a54:	f94227e1 	ldr	x1, [sp, #1096]
    6a58:	f9400002 	ldr	x2, [x0]
    6a5c:	eb020021 	subs	x1, x1, x2
    6a60:	d2800002 	mov	x2, #0x0                   	// #0
    6a64:	540004a1 	b.ne	6af8 <ferror@plt+0x3608>  // b.any
    6a68:	2a1503e0 	mov	w0, w21
    6a6c:	a9407bfd 	ldp	x29, x30, [sp]
    6a70:	a94153f3 	ldp	x19, x20, [sp, #16]
    6a74:	a9425bf5 	ldp	x21, x22, [sp, #32]
    6a78:	a94363f7 	ldp	x23, x24, [sp, #48]
    6a7c:	911143ff 	add	sp, sp, #0x450
    6a80:	d65f03c0 	ret
    6a84:	aa1603e5 	mov	x5, x22
    6a88:	aa1303e3 	mov	x3, x19
    6a8c:	f0000002 	adrp	x2, 9000 <putsgent@@Base+0x670>
    6a90:	f0000001 	adrp	x1, 9000 <putsgent@@Base+0x670>
    6a94:	91238042 	add	x2, x2, #0x8e0
    6a98:	9123a021 	add	x1, x1, #0x8e8
    6a9c:	f0000000 	adrp	x0, 9000 <putsgent@@Base+0x670>
    6aa0:	d2800004 	mov	x4, #0x0                   	// #0
    6aa4:	9123c000 	add	x0, x0, #0x8f0
    6aa8:	97fff0e6 	bl	2e40 <execle@plt>
    6aac:	b9400295 	ldr	w21, [x20]
    6ab0:	17ffffd9 	b	6a14 <ferror@plt+0x3524>
    6ab4:	aa1303e0 	mov	x0, x19
    6ab8:	97fff9d4 	bl	5208 <ferror@plt+0x1d18>
    6abc:	d2808003 	mov	x3, #0x400                 	// #1024
    6ac0:	aa0003e5 	mov	x5, x0
    6ac4:	aa0303e1 	mov	x1, x3
    6ac8:	aa1803e0 	mov	x0, x24
    6acc:	f0000004 	adrp	x4, 9000 <putsgent@@Base+0x670>
    6ad0:	52800022 	mov	w2, #0x1                   	// #1
    6ad4:	91236084 	add	x4, x4, #0x8d8
    6ad8:	aa1803f5 	mov	x21, x24
    6adc:	97fff12d 	bl	2f90 <__snprintf_chk@plt>
    6ae0:	39111fff 	strb	wzr, [sp, #1095]
    6ae4:	17ffffc2 	b	69ec <ferror@plt+0x34fc>
    6ae8:	528002c0 	mov	w0, #0x16                  	// #22
    6aec:	2a0003f5 	mov	w21, w0
    6af0:	b9000280 	str	w0, [x20]
    6af4:	17ffffd7 	b	6a50 <ferror@plt+0x3560>
    6af8:	97fff19a 	bl	3160 <__stack_chk_fail@plt>
    6afc:	d503201f 	nop
    6b00:	a9be7bfd 	stp	x29, x30, [sp, #-32]!
    6b04:	910003fd 	mov	x29, sp
    6b08:	a90153f3 	stp	x19, x20, [sp, #16]
    6b0c:	aa0003f3 	mov	x19, x0
    6b10:	f9401000 	ldr	x0, [x0, #32]
    6b14:	39400001 	ldrb	w1, [x0]
    6b18:	7100bc3f 	cmp	w1, #0x2f
    6b1c:	54000581 	b.ne	6bcc <ferror@plt+0x36dc>  // b.any
    6b20:	97fff1e0 	bl	32a0 <chdir@plt>
    6b24:	350000e0 	cbnz	w0, 6b40 <ferror@plt+0x3650>
    6b28:	f9401260 	ldr	x0, [x19, #32]
    6b2c:	97fff201 	bl	3330 <chroot@plt>
    6b30:	35000080 	cbnz	w0, 6b40 <ferror@plt+0x3650>
    6b34:	a94153f3 	ldp	x19, x20, [sp, #16]
    6b38:	a8c27bfd 	ldp	x29, x30, [sp], #32
    6b3c:	d65f03c0 	ret
    6b40:	528000a2 	mov	w2, #0x5                   	// #5
    6b44:	f0000001 	adrp	x1, 9000 <putsgent@@Base+0x670>
    6b48:	d2800000 	mov	x0, #0x0                   	// #0
    6b4c:	91256021 	add	x1, x1, #0x958
    6b50:	97fff21c 	bl	33c0 <dcgettext@plt>
    6b54:	aa0003e1 	mov	x1, x0
    6b58:	f9401262 	ldr	x2, [x19, #32]
    6b5c:	52800020 	mov	w0, #0x1                   	// #1
    6b60:	97fff14c 	bl	3090 <__printf_chk@plt>
    6b64:	d2800001 	mov	x1, #0x0                   	// #0
    6b68:	528000c0 	mov	w0, #0x6                   	// #6
    6b6c:	97fff25d 	bl	34e0 <setlocale@plt>
    6b70:	b4000600 	cbz	x0, 6c30 <ferror@plt+0x3740>
    6b74:	97fff173 	bl	3140 <strdup@plt>
    6b78:	aa0003f4 	mov	x20, x0
    6b7c:	b40005a0 	cbz	x0, 6c30 <ferror@plt+0x3740>
    6b80:	d0000001 	adrp	x1, 8000 <ferror@plt+0x4b10>
    6b84:	528000c0 	mov	w0, #0x6                   	// #6
    6b88:	91394021 	add	x1, x1, #0xe50
    6b8c:	97fff255 	bl	34e0 <setlocale@plt>
    6b90:	f9400264 	ldr	x4, [x19]
    6b94:	f0000002 	adrp	x2, 9000 <putsgent@@Base+0x670>
    6b98:	f9401263 	ldr	x3, [x19, #32]
    6b9c:	91260042 	add	x2, x2, #0x980
    6ba0:	52800021 	mov	w1, #0x1                   	// #1
    6ba4:	52800080 	mov	w0, #0x4                   	// #4
    6ba8:	97fff1d2 	bl	32f0 <__syslog_chk@plt>
    6bac:	aa1403e1 	mov	x1, x20
    6bb0:	528000c0 	mov	w0, #0x6                   	// #6
    6bb4:	97fff24b 	bl	34e0 <setlocale@plt>
    6bb8:	aa1403e0 	mov	x0, x20
    6bbc:	97fff1bd 	bl	32b0 <free@plt>
    6bc0:	97fff0d0 	bl	2f00 <closelog@plt>
    6bc4:	52800020 	mov	w0, #0x1                   	// #1
    6bc8:	97fff092 	bl	2e10 <exit@plt>
    6bcc:	528000a2 	mov	w2, #0x5                   	// #5
    6bd0:	f0000001 	adrp	x1, 9000 <putsgent@@Base+0x670>
    6bd4:	d2800000 	mov	x0, #0x0                   	// #0
    6bd8:	91244021 	add	x1, x1, #0x910
    6bdc:	97fff1f9 	bl	33c0 <dcgettext@plt>
    6be0:	aa0003e1 	mov	x1, x0
    6be4:	f9401262 	ldr	x2, [x19, #32]
    6be8:	52800020 	mov	w0, #0x1                   	// #1
    6bec:	97fff129 	bl	3090 <__printf_chk@plt>
    6bf0:	d2800001 	mov	x1, #0x0                   	// #0
    6bf4:	528000c0 	mov	w0, #0x6                   	// #6
    6bf8:	97fff23a 	bl	34e0 <setlocale@plt>
    6bfc:	b40002a0 	cbz	x0, 6c50 <ferror@plt+0x3760>
    6c00:	97fff150 	bl	3140 <strdup@plt>
    6c04:	aa0003f4 	mov	x20, x0
    6c08:	b4000240 	cbz	x0, 6c50 <ferror@plt+0x3760>
    6c0c:	d0000001 	adrp	x1, 8000 <ferror@plt+0x4b10>
    6c10:	528000c0 	mov	w0, #0x6                   	// #6
    6c14:	91394021 	add	x1, x1, #0xe50
    6c18:	97fff232 	bl	34e0 <setlocale@plt>
    6c1c:	f0000002 	adrp	x2, 9000 <putsgent@@Base+0x670>
    6c20:	9124c042 	add	x2, x2, #0x930
    6c24:	f9400264 	ldr	x4, [x19]
    6c28:	f9401263 	ldr	x3, [x19, #32]
    6c2c:	17ffffdd 	b	6ba0 <ferror@plt+0x36b0>
    6c30:	f9400264 	ldr	x4, [x19]
    6c34:	f0000002 	adrp	x2, 9000 <putsgent@@Base+0x670>
    6c38:	f9401263 	ldr	x3, [x19, #32]
    6c3c:	91260042 	add	x2, x2, #0x980
    6c40:	52800021 	mov	w1, #0x1                   	// #1
    6c44:	52800080 	mov	w0, #0x4                   	// #4
    6c48:	97fff1aa 	bl	32f0 <__syslog_chk@plt>
    6c4c:	17ffffdd 	b	6bc0 <ferror@plt+0x36d0>
    6c50:	f9400264 	ldr	x4, [x19]
    6c54:	f0000002 	adrp	x2, 9000 <putsgent@@Base+0x670>
    6c58:	f9401263 	ldr	x3, [x19, #32]
    6c5c:	9124c042 	add	x2, x2, #0x930
    6c60:	52800021 	mov	w1, #0x1                   	// #1
    6c64:	52800080 	mov	w0, #0x4                   	// #4
    6c68:	97fff1a2 	bl	32f0 <__syslog_chk@plt>
    6c6c:	17ffffd5 	b	6bc0 <ferror@plt+0x36d0>
    6c70:	d2850c0c 	mov	x12, #0x2860                	// #10336
    6c74:	cb2c63ff 	sub	sp, sp, x12
    6c78:	d2807e02 	mov	x2, #0x3f0                 	// #1008
    6c7c:	52800001 	mov	w1, #0x0                   	// #0
    6c80:	a9007bfd 	stp	x29, x30, [sp]
    6c84:	910003fd 	mov	x29, sp
    6c88:	a90153f3 	stp	x19, x20, [sp, #16]
    6c8c:	b00000b3 	adrp	x19, 1b000 <putsgent@@Base+0x12670>
    6c90:	f947e663 	ldr	x3, [x19, #4040]
    6c94:	a9025bf5 	stp	x21, x22, [sp, #32]
    6c98:	aa0003f5 	mov	x21, x0
    6c9c:	f9400064 	ldr	x4, [x3]
    6ca0:	f9142fe4 	str	x4, [sp, #10328]
    6ca4:	d2800004 	mov	x4, #0x0                   	// #0
    6ca8:	9101a3e0 	add	x0, sp, #0x68
    6cac:	a905ffff 	stp	xzr, xzr, [sp, #88]
    6cb0:	d0000016 	adrp	x22, 8000 <ferror@plt+0x4b10>
    6cb4:	97fff0fb 	bl	30a0 <memset@plt>
    6cb8:	913f42c0 	add	x0, x22, #0xfd0
    6cbc:	97fff1ed 	bl	3470 <getenv@plt>
    6cc0:	b40001a0 	cbz	x0, 6cf4 <ferror@plt+0x3804>
    6cc4:	f947e673 	ldr	x19, [x19, #4040]
    6cc8:	f9542fe0 	ldr	x0, [sp, #10328]
    6ccc:	f9400261 	ldr	x1, [x19]
    6cd0:	eb010000 	subs	x0, x0, x1
    6cd4:	d2800001 	mov	x1, #0x0                   	// #0
    6cd8:	54000961 	b.ne	6e04 <ferror@plt+0x3914>  // b.any
    6cdc:	d2850c0c 	mov	x12, #0x2860                	// #10336
    6ce0:	a9407bfd 	ldp	x29, x30, [sp]
    6ce4:	a94153f3 	ldp	x19, x20, [sp, #16]
    6ce8:	a9425bf5 	ldp	x21, x22, [sp, #32]
    6cec:	8b2c63ff 	add	sp, sp, x12
    6cf0:	d65f03c0 	ret
    6cf4:	f0000000 	adrp	x0, 9000 <putsgent@@Base+0x670>
    6cf8:	9126a000 	add	x0, x0, #0x9a8
    6cfc:	a90363f7 	stp	x23, x24, [sp, #48]
    6d00:	94000434 	bl	7dd0 <ferror@plt+0x48e0>
    6d04:	aa0003f8 	mov	x24, x0
    6d08:	b4000080 	cbz	x0, 6d18 <ferror@plt+0x3828>
    6d0c:	52800001 	mov	w1, #0x0                   	// #0
    6d10:	97fff138 	bl	31f0 <access@plt>
    6d14:	34000060 	cbz	w0, 6d20 <ferror@plt+0x3830>
    6d18:	a94363f7 	ldp	x23, x24, [sp, #48]
    6d1c:	17ffffea 	b	6cc4 <ferror@plt+0x37d4>
    6d20:	aa1803e0 	mov	x0, x24
    6d24:	f0000001 	adrp	x1, 9000 <putsgent@@Base+0x670>
    6d28:	912163f4 	add	x20, sp, #0x858
    6d2c:	911ae021 	add	x1, x1, #0x6b8
    6d30:	97fff0a8 	bl	2fd0 <fopen@plt>
    6d34:	aa0003f7 	mov	x23, x0
    6d38:	b40005e0 	cbz	x0, 6df4 <ferror@plt+0x3904>
    6d3c:	911163f8 	add	x24, sp, #0x458
    6d40:	a9046bf9 	stp	x25, x26, [sp, #64]
    6d44:	f0000019 	adrp	x25, 9000 <putsgent@@Base+0x670>
    6d48:	910163fa 	add	x26, sp, #0x58
    6d4c:	9126e339 	add	x25, x25, #0x9b8
    6d50:	aa1703e2 	mov	x2, x23
    6d54:	aa1403e0 	mov	x0, x20
    6d58:	52840001 	mov	w1, #0x2000                	// #8192
    6d5c:	97fff1d5 	bl	34b0 <fgets@plt>
    6d60:	eb00029f 	cmp	x20, x0
    6d64:	54000261 	b.ne	6db0 <ferror@plt+0x38c0>  // b.any
    6d68:	396163e1 	ldrb	w1, [sp, #2136]
    6d6c:	71008c3f 	cmp	w1, #0x23
    6d70:	54ffff00 	b.eq	6d50 <ferror@plt+0x3860>  // b.none
    6d74:	52800141 	mov	w1, #0xa                   	// #10
    6d78:	97fff156 	bl	32d0 <strchr@plt>
    6d7c:	b4000040 	cbz	x0, 6d84 <ferror@plt+0x3894>
    6d80:	3900001f 	strb	wzr, [x0]
    6d84:	aa1803e3 	mov	x3, x24
    6d88:	aa1a03e2 	mov	x2, x26
    6d8c:	aa1903e1 	mov	x1, x25
    6d90:	aa1403e0 	mov	x0, x20
    6d94:	97fff193 	bl	33e0 <__isoc99_sscanf@plt>
    6d98:	7100081f 	cmp	w0, #0x2
    6d9c:	54fffda1 	b.ne	6d50 <ferror@plt+0x3860>  // b.any
    6da0:	aa1803e1 	mov	x1, x24
    6da4:	aa1503e0 	mov	x0, x21
    6da8:	97fff12a 	bl	3250 <strcmp@plt>
    6dac:	35fffd20 	cbnz	w0, 6d50 <ferror@plt+0x3860>
    6db0:	aa1703e0 	mov	x0, x23
    6db4:	97fff113 	bl	3200 <feof@plt>
    6db8:	340000c0 	cbz	w0, 6dd0 <ferror@plt+0x38e0>
    6dbc:	aa1703e0 	mov	x0, x23
    6dc0:	97fff07c 	bl	2fb0 <fclose@plt>
    6dc4:	a94363f7 	ldp	x23, x24, [sp, #48]
    6dc8:	a9446bf9 	ldp	x25, x26, [sp, #64]
    6dcc:	17ffffbe 	b	6cc4 <ferror@plt+0x37d4>
    6dd0:	aa1703e0 	mov	x0, x23
    6dd4:	97fff1c7 	bl	34f0 <ferror@plt>
    6dd8:	35ffff20 	cbnz	w0, 6dbc <ferror@plt+0x38cc>
    6ddc:	394163e0 	ldrb	w0, [sp, #88]
    6de0:	34fffee0 	cbz	w0, 6dbc <ferror@plt+0x38cc>
    6de4:	913f42c0 	add	x0, x22, #0xfd0
    6de8:	910163e1 	add	x1, sp, #0x58
    6dec:	97fff977 	bl	53c8 <ferror@plt+0x1ed8>
    6df0:	17fffff3 	b	6dbc <ferror@plt+0x38cc>
    6df4:	aa1803e0 	mov	x0, x24
    6df8:	97fff016 	bl	2e50 <perror@plt>
    6dfc:	a94363f7 	ldp	x23, x24, [sp, #48]
    6e00:	17ffffb1 	b	6cc4 <ferror@plt+0x37d4>
    6e04:	a90363f7 	stp	x23, x24, [sp, #48]
    6e08:	a9046bf9 	stp	x25, x26, [sp, #64]
    6e0c:	97fff0d5 	bl	3160 <__stack_chk_fail@plt>
    6e10:	a9af7bfd 	stp	x29, x30, [sp, #-272]!
    6e14:	910003fd 	mov	x29, sp
    6e18:	a9025bf5 	stp	x21, x22, [sp, #32]
    6e1c:	b00000b5 	adrp	x21, 1b000 <putsgent@@Base+0x12670>
    6e20:	d00000b6 	adrp	x22, 1c000 <putsgent@@Base+0x13670>
    6e24:	f947e6a0 	ldr	x0, [x21, #4040]
    6e28:	911c22d6 	add	x22, x22, #0x708
    6e2c:	a90363f7 	stp	x23, x24, [sp, #48]
    6e30:	f0000017 	adrp	x23, 9000 <putsgent@@Base+0x670>
    6e34:	f9400001 	ldr	x1, [x0]
    6e38:	f90087e1 	str	x1, [sp, #264]
    6e3c:	d2800001 	mov	x1, #0x0                   	// #0
    6e40:	910103f8 	add	x24, sp, #0x40
    6e44:	912722f7 	add	x23, x23, #0x9c8
    6e48:	a90153f3 	stp	x19, x20, [sp, #16]
    6e4c:	97fff015 	bl	2ea0 <setutent@plt>
    6e50:	97ffeff8 	bl	2e30 <getutent@plt>
    6e54:	aa0003f3 	mov	x19, x0
    6e58:	b40003a0 	cbz	x0, 6ecc <ferror@plt+0x39dc>
    6e5c:	b9400674 	ldr	w20, [x19, #4]
    6e60:	97fff058 	bl	2fc0 <getpid@plt>
    6e64:	6b00029f 	cmp	w20, w0
    6e68:	54ffff41 	b.ne	6e50 <ferror@plt+0x3960>  // b.any
    6e6c:	3940a260 	ldrb	w0, [x19, #40]
    6e70:	34ffff00 	cbz	w0, 6e50 <ferror@plt+0x3960>
    6e74:	79400260 	ldrh	w0, [x19]
    6e78:	51001800 	sub	w0, w0, #0x6
    6e7c:	12003c00 	and	w0, w0, #0xffff
    6e80:	7100041f 	cmp	w0, #0x1
    6e84:	54fffe68 	b.hi	6e50 <ferror@plt+0x3960>  // b.pmore
    6e88:	39402260 	ldrb	w0, [x19, #8]
    6e8c:	91002274 	add	x20, x19, #0x8
    6e90:	7100bc1f 	cmp	w0, #0x2f
    6e94:	54000361 	b.ne	6f00 <ferror@plt+0x3a10>  // b.any
    6e98:	394002c0 	ldrb	w0, [x22]
    6e9c:	34000460 	cbz	w0, 6f28 <ferror@plt+0x3a38>
    6ea0:	aa1403e0 	mov	x0, x20
    6ea4:	aa1603e1 	mov	x1, x22
    6ea8:	d2801922 	mov	x2, #0xc9                  	// #201
    6eac:	97fff06d 	bl	3060 <strncmp@plt>
    6eb0:	35fffd00 	cbnz	w0, 6e50 <ferror@plt+0x3960>
    6eb4:	d2803200 	mov	x0, #0x190                 	// #400
    6eb8:	94000248 	bl	77d8 <ferror@plt+0x42e8>
    6ebc:	aa1303e1 	mov	x1, x19
    6ec0:	d2803202 	mov	x2, #0x190                 	// #400
    6ec4:	aa0003f3 	mov	x19, x0
    6ec8:	97ffefa6 	bl	2d60 <memcpy@plt>
    6ecc:	97fff105 	bl	32e0 <endutent@plt>
    6ed0:	f947e6b5 	ldr	x21, [x21, #4040]
    6ed4:	f94087e0 	ldr	x0, [sp, #264]
    6ed8:	f94002a1 	ldr	x1, [x21]
    6edc:	eb010000 	subs	x0, x0, x1
    6ee0:	d2800001 	mov	x1, #0x0                   	// #0
    6ee4:	54000441 	b.ne	6f6c <ferror@plt+0x3a7c>  // b.any
    6ee8:	aa1303e0 	mov	x0, x19
    6eec:	a94153f3 	ldp	x19, x20, [sp, #16]
    6ef0:	a9425bf5 	ldp	x21, x22, [sp, #32]
    6ef4:	a94363f7 	ldp	x23, x24, [sp, #48]
    6ef8:	a8d17bfd 	ldp	x29, x30, [sp], #272
    6efc:	d65f03c0 	ret
    6f00:	aa1403e5 	mov	x5, x20
    6f04:	d2801903 	mov	x3, #0xc8                  	// #200
    6f08:	aa1703e4 	mov	x4, x23
    6f0c:	aa0303e1 	mov	x1, x3
    6f10:	aa1803e0 	mov	x0, x24
    6f14:	52800022 	mov	w2, #0x1                   	// #1
    6f18:	97fff01e 	bl	2f90 <__snprintf_chk@plt>
    6f1c:	aa1803f4 	mov	x20, x24
    6f20:	394002c0 	ldrb	w0, [x22]
    6f24:	35fffbe0 	cbnz	w0, 6ea0 <ferror@plt+0x39b0>
    6f28:	97ffefe2 	bl	2eb0 <ttyname@plt>
    6f2c:	aa0003e1 	mov	x1, x0
    6f30:	b40000a0 	cbz	x0, 6f44 <ferror@plt+0x3a54>
    6f34:	aa1603e0 	mov	x0, x22
    6f38:	d2801922 	mov	x2, #0xc9                  	// #201
    6f3c:	97fff12d 	bl	33f0 <strncpy@plt>
    6f40:	390322df 	strb	wzr, [x22, #200]
    6f44:	394002c0 	ldrb	w0, [x22]
    6f48:	35fffac0 	cbnz	w0, 6ea0 <ferror@plt+0x39b0>
    6f4c:	f0000001 	adrp	x1, 9000 <putsgent@@Base+0x670>
    6f50:	91274021 	add	x1, x1, #0x9d0
    6f54:	528000a2 	mov	w2, #0x5                   	// #5
    6f58:	d2800000 	mov	x0, #0x0                   	// #0
    6f5c:	97fff119 	bl	33c0 <dcgettext@plt>
    6f60:	97fff0ac 	bl	3210 <puts@plt>
    6f64:	52800020 	mov	w0, #0x1                   	// #1
    6f68:	97ffefaa 	bl	2e10 <exit@plt>
    6f6c:	97fff07d 	bl	3160 <__stack_chk_fail@plt>
    6f70:	a9ba7bfd 	stp	x29, x30, [sp, #-96]!
    6f74:	910003fd 	mov	x29, sp
    6f78:	a9025bf5 	stp	x21, x22, [sp, #32]
    6f7c:	b00000b6 	adrp	x22, 1b000 <putsgent@@Base+0x12670>
    6f80:	aa0003f5 	mov	x21, x0
    6f84:	f947e6c4 	ldr	x4, [x22, #4040]
    6f88:	a90153f3 	stp	x19, x20, [sp, #16]
    6f8c:	f9400080 	ldr	x0, [x4]
    6f90:	f9002fe0 	str	x0, [sp, #88]
    6f94:	d2800000 	mov	x0, #0x0                   	// #0
    6f98:	a90363f7 	stp	x23, x24, [sp, #48]
    6f9c:	b40015b5 	cbz	x21, 7250 <ferror@plt+0x3d60>
    6fa0:	aa0103f4 	mov	x20, x1
    6fa4:	b4001681 	cbz	x1, 7274 <ferror@plt+0x3d84>
    6fa8:	aa0203f3 	mov	x19, x2
    6fac:	aa0303f7 	mov	x23, x3
    6fb0:	b4000062 	cbz	x2, 6fbc <ferror@plt+0x3acc>
    6fb4:	39400040 	ldrb	w0, [x2]
    6fb8:	35000c60 	cbnz	w0, 7144 <ferror@plt+0x3c54>
    6fbc:	b4000e17 	cbz	x23, 717c <ferror@plt+0x3c8c>
    6fc0:	394132e0 	ldrb	w0, [x23, #76]
    6fc4:	d2800018 	mov	x24, #0x0                   	// #0
    6fc8:	350010e0 	cbnz	w0, 71e4 <ferror@plt+0x3cf4>
    6fcc:	f0000001 	adrp	x1, 9000 <putsgent@@Base+0x670>
    6fd0:	aa1403e0 	mov	x0, x20
    6fd4:	91288021 	add	x1, x1, #0xa20
    6fd8:	d28000a2 	mov	x2, #0x5                   	// #5
    6fdc:	97fff021 	bl	3060 <strncmp@plt>
    6fe0:	35000940 	cbnz	w0, 7108 <ferror@plt+0x3c18>
    6fe4:	91001694 	add	x20, x20, #0x5
    6fe8:	d2803200 	mov	x0, #0x190                 	// #400
    6fec:	940001fb 	bl	77d8 <ferror@plt+0x42e8>
    6ff0:	aa0003f3 	mov	x19, x0
    6ff4:	d2803202 	mov	x2, #0x190                 	// #400
    6ff8:	52800001 	mov	w1, #0x0                   	// #0
    6ffc:	97fff029 	bl	30a0 <memset@plt>
    7000:	528000e0 	mov	w0, #0x7                   	// #7
    7004:	79000260 	strh	w0, [x19]
    7008:	97ffefee 	bl	2fc0 <getpid@plt>
    700c:	b9000660 	str	w0, [x19, #4]
    7010:	aa1403e1 	mov	x1, x20
    7014:	91002260 	add	x0, x19, #0x8
    7018:	d2800402 	mov	x2, #0x20                  	// #32
    701c:	97fff0f5 	bl	33f0 <strncpy@plt>
    7020:	b4000d97 	cbz	x23, 71d0 <ferror@plt+0x3ce0>
    7024:	9100a2e1 	add	x1, x23, #0x28
    7028:	9100a260 	add	x0, x19, #0x28
    702c:	d2800082 	mov	x2, #0x4                   	// #4
    7030:	97fff0f0 	bl	33f0 <strncpy@plt>
    7034:	9100b263 	add	x3, x19, #0x2c
    7038:	aa1503e1 	mov	x1, x21
    703c:	aa0303e0 	mov	x0, x3
    7040:	d2800402 	mov	x2, #0x20                  	// #32
    7044:	910123f4 	add	x20, sp, #0x48
    7048:	97fff0ea 	bl	33f0 <strncpy@plt>
    704c:	aa1503e1 	mov	x1, x21
    7050:	d2800402 	mov	x2, #0x20                  	// #32
    7054:	97fff0e7 	bl	33f0 <strncpy@plt>
    7058:	b40002d8 	cbz	x24, 70b0 <ferror@plt+0x3bc0>
    705c:	aa1803e1 	mov	x1, x24
    7060:	d2802002 	mov	x2, #0x100                 	// #256
    7064:	91013260 	add	x0, x19, #0x4c
    7068:	910123f4 	add	x20, sp, #0x48
    706c:	f90027ff 	str	xzr, [sp, #72]
    7070:	97fff0e0 	bl	33f0 <strncpy@plt>
    7074:	aa1403e3 	mov	x3, x20
    7078:	aa1803e0 	mov	x0, x24
    707c:	d2800002 	mov	x2, #0x0                   	// #0
    7080:	d2800001 	mov	x1, #0x0                   	// #0
    7084:	97fff0b3 	bl	3350 <getaddrinfo@plt>
    7088:	35000100 	cbnz	w0, 70a8 <ferror@plt+0x3bb8>
    708c:	f94027e0 	ldr	x0, [sp, #72]
    7090:	b9400401 	ldr	w1, [x0, #4]
    7094:	7100083f 	cmp	w1, #0x2
    7098:	54000c60 	b.eq	7224 <ferror@plt+0x3d34>  // b.none
    709c:	7100283f 	cmp	w1, #0xa
    70a0:	54000ce0 	b.eq	723c <ferror@plt+0x3d4c>  // b.none
    70a4:	97ffef43 	bl	2db0 <freeaddrinfo@plt>
    70a8:	aa1803e0 	mov	x0, x24
    70ac:	97fff081 	bl	32b0 <free@plt>
    70b0:	52800000 	mov	w0, #0x0                   	// #0
    70b4:	97ffef4f 	bl	2df0 <getsid@plt>
    70b8:	93407c02 	sxtw	x2, w0
    70bc:	f900aa62 	str	x2, [x19, #336]
    70c0:	aa1403e0 	mov	x0, x20
    70c4:	d2800001 	mov	x1, #0x0                   	// #0
    70c8:	97ffeffa 	bl	30b0 <gettimeofday@plt>
    70cc:	35000060 	cbnz	w0, 70d8 <ferror@plt+0x3be8>
    70d0:	a94483e1 	ldp	x1, x0, [sp, #72]
    70d4:	a9158261 	stp	x1, x0, [x19, #344]
    70d8:	f947e6d6 	ldr	x22, [x22, #4040]
    70dc:	f9402fe0 	ldr	x0, [sp, #88]
    70e0:	f94002c1 	ldr	x1, [x22]
    70e4:	eb010000 	subs	x0, x0, x1
    70e8:	d2800001 	mov	x1, #0x0                   	// #0
    70ec:	54000c21 	b.ne	7270 <ferror@plt+0x3d80>  // b.any
    70f0:	aa1303e0 	mov	x0, x19
    70f4:	a94153f3 	ldp	x19, x20, [sp, #16]
    70f8:	a9425bf5 	ldp	x21, x22, [sp, #32]
    70fc:	a94363f7 	ldp	x23, x24, [sp, #48]
    7100:	a8c67bfd 	ldp	x29, x30, [sp], #96
    7104:	d65f03c0 	ret
    7108:	d2803200 	mov	x0, #0x190                 	// #400
    710c:	940001b3 	bl	77d8 <ferror@plt+0x42e8>
    7110:	aa0003f3 	mov	x19, x0
    7114:	d2803202 	mov	x2, #0x190                 	// #400
    7118:	52800001 	mov	w1, #0x0                   	// #0
    711c:	97ffefe1 	bl	30a0 <memset@plt>
    7120:	528000e0 	mov	w0, #0x7                   	// #7
    7124:	79000260 	strh	w0, [x19]
    7128:	97ffefa6 	bl	2fc0 <getpid@plt>
    712c:	b9000660 	str	w0, [x19, #4]
    7130:	aa1403e1 	mov	x1, x20
    7134:	91002260 	add	x0, x19, #0x8
    7138:	d2800402 	mov	x2, #0x20                  	// #32
    713c:	97fff0ad 	bl	33f0 <strncpy@plt>
    7140:	17ffffb9 	b	7024 <ferror@plt+0x3b34>
    7144:	aa0203e0 	mov	x0, x2
    7148:	97ffef26 	bl	2de0 <strlen@plt>
    714c:	91000400 	add	x0, x0, #0x1
    7150:	940001a2 	bl	77d8 <ferror@plt+0x42e8>
    7154:	aa1303e1 	mov	x1, x19
    7158:	aa0003f8 	mov	x24, x0
    715c:	97fff071 	bl	3320 <strcpy@plt>
    7160:	d0000001 	adrp	x1, 9000 <putsgent@@Base+0x670>
    7164:	aa1403e0 	mov	x0, x20
    7168:	91288021 	add	x1, x1, #0xa20
    716c:	d28000a2 	mov	x2, #0x5                   	// #5
    7170:	97ffefbc 	bl	3060 <strncmp@plt>
    7174:	35fff3a0 	cbnz	w0, 6fe8 <ferror@plt+0x3af8>
    7178:	17ffff9b 	b	6fe4 <ferror@plt+0x3af4>
    717c:	d0000001 	adrp	x1, 9000 <putsgent@@Base+0x670>
    7180:	aa1403e0 	mov	x0, x20
    7184:	91288021 	add	x1, x1, #0xa20
    7188:	d28000a2 	mov	x2, #0x5                   	// #5
    718c:	97ffefb5 	bl	3060 <strncmp@plt>
    7190:	34000460 	cbz	w0, 721c <ferror@plt+0x3d2c>
    7194:	d2803200 	mov	x0, #0x190                 	// #400
    7198:	94000190 	bl	77d8 <ferror@plt+0x42e8>
    719c:	aa0003f3 	mov	x19, x0
    71a0:	d2803202 	mov	x2, #0x190                 	// #400
    71a4:	52800001 	mov	w1, #0x0                   	// #0
    71a8:	97ffefbe 	bl	30a0 <memset@plt>
    71ac:	528000e0 	mov	w0, #0x7                   	// #7
    71b0:	d2800018 	mov	x24, #0x0                   	// #0
    71b4:	79000260 	strh	w0, [x19]
    71b8:	97ffef82 	bl	2fc0 <getpid@plt>
    71bc:	b9000660 	str	w0, [x19, #4]
    71c0:	aa1403e1 	mov	x1, x20
    71c4:	91002260 	add	x0, x19, #0x8
    71c8:	d2800402 	mov	x2, #0x20                  	// #32
    71cc:	97fff089 	bl	33f0 <strncpy@plt>
    71d0:	91000e81 	add	x1, x20, #0x3
    71d4:	9100a260 	add	x0, x19, #0x28
    71d8:	d2800082 	mov	x2, #0x4                   	// #4
    71dc:	97fff085 	bl	33f0 <strncpy@plt>
    71e0:	17ffff95 	b	7034 <ferror@plt+0x3b44>
    71e4:	d2802020 	mov	x0, #0x101                 	// #257
    71e8:	9400017c 	bl	77d8 <ferror@plt+0x42e8>
    71ec:	aa0003f8 	mov	x24, x0
    71f0:	910132e1 	add	x1, x23, #0x4c
    71f4:	d2802002 	mov	x2, #0x100                 	// #256
    71f8:	97fff07e 	bl	33f0 <strncpy@plt>
    71fc:	d0000001 	adrp	x1, 9000 <putsgent@@Base+0x670>
    7200:	aa1403e0 	mov	x0, x20
    7204:	3904031f 	strb	wzr, [x24, #256]
    7208:	91288021 	add	x1, x1, #0xa20
    720c:	d28000a2 	mov	x2, #0x5                   	// #5
    7210:	97ffef94 	bl	3060 <strncmp@plt>
    7214:	34ffee80 	cbz	w0, 6fe4 <ferror@plt+0x3af4>
    7218:	17ffffbc 	b	7108 <ferror@plt+0x3c18>
    721c:	d2800018 	mov	x24, #0x0                   	// #0
    7220:	17ffff71 	b	6fe4 <ferror@plt+0x3af4>
    7224:	f9400c01 	ldr	x1, [x0, #24]
    7228:	b9400422 	ldr	w2, [x1, #4]
    722c:	b9016a62 	str	w2, [x19, #360]
    7230:	b9400421 	ldr	w1, [x1, #4]
    7234:	b9016a61 	str	w1, [x19, #360]
    7238:	17ffff9b 	b	70a4 <ferror@plt+0x3bb4>
    723c:	f9400c02 	ldr	x2, [x0, #24]
    7240:	91080261 	add	x1, x19, #0x200
    7244:	a9408c42 	ldp	x2, x3, [x2, #8]
    7248:	a9368c22 	stp	x2, x3, [x1, #-152]
    724c:	17ffff96 	b	70a4 <ferror@plt+0x3bb4>
    7250:	d0000003 	adrp	x3, 9000 <putsgent@@Base+0x670>
    7254:	d0000001 	adrp	x1, 9000 <putsgent@@Base+0x670>
    7258:	d0000000 	adrp	x0, 9000 <putsgent@@Base+0x670>
    725c:	9128e063 	add	x3, x3, #0xa38
    7260:	9127e021 	add	x1, x1, #0x9f8
    7264:	91280000 	add	x0, x0, #0xa00
    7268:	52801c82 	mov	w2, #0xe4                  	// #228
    726c:	97fff071 	bl	3430 <__assert_fail@plt>
    7270:	97ffefbc 	bl	3160 <__stack_chk_fail@plt>
    7274:	d0000003 	adrp	x3, 9000 <putsgent@@Base+0x670>
    7278:	d0000001 	adrp	x1, 9000 <putsgent@@Base+0x670>
    727c:	d0000000 	adrp	x0, 9000 <putsgent@@Base+0x670>
    7280:	9128e063 	add	x3, x3, #0xa38
    7284:	9127e021 	add	x1, x1, #0x9f8
    7288:	91284000 	add	x0, x0, #0xa10
    728c:	52801ca2 	mov	w2, #0xe5                  	// #229
    7290:	97fff068 	bl	3430 <__assert_fail@plt>
    7294:	d503201f 	nop
    7298:	a9be7bfd 	stp	x29, x30, [sp, #-32]!
    729c:	910003fd 	mov	x29, sp
    72a0:	f9000bf3 	str	x19, [sp, #16]
    72a4:	b4000180 	cbz	x0, 72d4 <ferror@plt+0x3de4>
    72a8:	aa0003f3 	mov	x19, x0
    72ac:	97ffeefd 	bl	2ea0 <setutent@plt>
    72b0:	aa1303e0 	mov	x0, x19
    72b4:	97ffeeb7 	bl	2d90 <pututline@plt>
    72b8:	aa0003f3 	mov	x19, x0
    72bc:	97fff009 	bl	32e0 <endutent@plt>
    72c0:	f100027f 	cmp	x19, #0x0
    72c4:	1a9f17e0 	cset	w0, eq  // eq = none
    72c8:	f9400bf3 	ldr	x19, [sp, #16]
    72cc:	a8c27bfd 	ldp	x29, x30, [sp], #32
    72d0:	d65f03c0 	ret
    72d4:	d0000003 	adrp	x3, 9000 <putsgent@@Base+0x670>
    72d8:	9128e063 	add	x3, x3, #0xa38
    72dc:	d0000001 	adrp	x1, 9000 <putsgent@@Base+0x670>
    72e0:	d0000000 	adrp	x0, 9000 <putsgent@@Base+0x670>
    72e4:	91004063 	add	x3, x3, #0x10
    72e8:	9127e021 	add	x1, x1, #0x9f8
    72ec:	9128a000 	add	x0, x0, #0xa28
    72f0:	52802b02 	mov	w2, #0x158                 	// #344
    72f4:	97fff04f 	bl	3430 <__assert_fail@plt>
    72f8:	a9ba7bfd 	stp	x29, x30, [sp, #-96]!
    72fc:	910003fd 	mov	x29, sp
    7300:	a9046bf9 	stp	x25, x26, [sp, #64]
    7304:	900000ba 	adrp	x26, 1b000 <putsgent@@Base+0x12670>
    7308:	f947e741 	ldr	x1, [x26, #4040]
    730c:	a90153f3 	stp	x19, x20, [sp, #16]
    7310:	f9400022 	ldr	x2, [x1]
    7314:	f9002fe2 	str	x2, [sp, #88]
    7318:	d2800002 	mov	x2, #0x0                   	// #0
    731c:	a9025bf5 	stp	x21, x22, [sp, #32]
    7320:	a90363f7 	stp	x23, x24, [sp, #48]
    7324:	aa0003f7 	mov	x23, x0
    7328:	d2800600 	mov	x0, #0x30                  	// #48
    732c:	97ffef35 	bl	3000 <malloc@plt>
    7330:	b40004a0 	cbz	x0, 73c4 <ferror@plt+0x3ed4>
    7334:	aa0003f6 	mov	x22, x0
    7338:	910143f8 	add	x24, sp, #0x50
    733c:	d2802015 	mov	x21, #0x100                 	// #256
    7340:	d2800013 	mov	x19, #0x0                   	// #0
    7344:	92f80019 	mov	x25, #0x3fffffffffffffff    	// #4611686018427387903
    7348:	aa1303e0 	mov	x0, x19
    734c:	aa1503e1 	mov	x1, x21
    7350:	f9002bff 	str	xzr, [sp, #80]
    7354:	97ffef73 	bl	3120 <realloc@plt>
    7358:	aa0003f3 	mov	x19, x0
    735c:	b4000340 	cbz	x0, 73c4 <ferror@plt+0x3ed4>
    7360:	97fff038 	bl	3440 <__errno_location@plt>
    7364:	aa0003f4 	mov	x20, x0
    7368:	aa1803e4 	mov	x4, x24
    736c:	aa1503e3 	mov	x3, x21
    7370:	aa1303e2 	mov	x2, x19
    7374:	aa1603e1 	mov	x1, x22
    7378:	b900029f 	str	wzr, [x20]
    737c:	aa1703e0 	mov	x0, x23
    7380:	97ffee7c 	bl	2d70 <getpwnam_r@plt>
    7384:	35000080 	cbnz	w0, 7394 <ferror@plt+0x3ea4>
    7388:	f9402be0 	ldr	x0, [sp, #80]
    738c:	eb16001f 	cmp	x0, x22
    7390:	54000640 	b.eq	7458 <ferror@plt+0x3f68>  // b.none
    7394:	b9400280 	ldr	w0, [x20]
    7398:	7100881f 	cmp	w0, #0x22
    739c:	540003a1 	b.ne	7410 <ferror@plt+0x3f20>  // b.any
    73a0:	eb1902bf 	cmp	x21, x25
    73a4:	540002e8 	b.hi	7400 <ferror@plt+0x3f10>  // b.pmore
    73a8:	d37ef6b5 	lsl	x21, x21, #2
    73ac:	aa1303e0 	mov	x0, x19
    73b0:	aa1503e1 	mov	x1, x21
    73b4:	f9002bff 	str	xzr, [sp, #80]
    73b8:	97ffef5a 	bl	3120 <realloc@plt>
    73bc:	aa0003f3 	mov	x19, x0
    73c0:	b5fffd00 	cbnz	x0, 7360 <ferror@plt+0x3e70>
    73c4:	900000a3 	adrp	x3, 1b000 <putsgent@@Base+0x12670>
    73c8:	528000a2 	mov	w2, #0x5                   	// #5
    73cc:	d0000001 	adrp	x1, 9000 <putsgent@@Base+0x670>
    73d0:	91294021 	add	x1, x1, #0xa50
    73d4:	f947d063 	ldr	x3, [x3, #4000]
    73d8:	f9400073 	ldr	x19, [x3]
    73dc:	97ffeff9 	bl	33c0 <dcgettext@plt>
    73e0:	d0000003 	adrp	x3, 9000 <putsgent@@Base+0x670>
    73e4:	aa0003e2 	mov	x2, x0
    73e8:	9129a063 	add	x3, x3, #0xa68
    73ec:	52800021 	mov	w1, #0x1                   	// #1
    73f0:	aa1303e0 	mov	x0, x19
    73f4:	97ffef93 	bl	3240 <__fprintf_chk@plt>
    73f8:	528001a0 	mov	w0, #0xd                   	// #13
    73fc:	97ffee85 	bl	2e10 <exit@plt>
    7400:	b10006bf 	cmn	x21, #0x1
    7404:	540003a0 	b.eq	7478 <ferror@plt+0x3f88>  // b.none
    7408:	92800015 	mov	x21, #0xffffffffffffffff    	// #-1
    740c:	17ffffcf 	b	7348 <ferror@plt+0x3e58>
    7410:	aa1303e0 	mov	x0, x19
    7414:	97ffefa7 	bl	32b0 <free@plt>
    7418:	aa1603e0 	mov	x0, x22
    741c:	d2800014 	mov	x20, #0x0                   	// #0
    7420:	97ffefa4 	bl	32b0 <free@plt>
    7424:	f947e75a 	ldr	x26, [x26, #4040]
    7428:	f9402fe0 	ldr	x0, [sp, #88]
    742c:	f9400341 	ldr	x1, [x26]
    7430:	eb010000 	subs	x0, x0, x1
    7434:	d2800001 	mov	x1, #0x0                   	// #0
    7438:	540002c1 	b.ne	7490 <ferror@plt+0x3fa0>  // b.any
    743c:	aa1403e0 	mov	x0, x20
    7440:	a94153f3 	ldp	x19, x20, [sp, #16]
    7444:	a9425bf5 	ldp	x21, x22, [sp, #32]
    7448:	a94363f7 	ldp	x23, x24, [sp, #48]
    744c:	a9446bf9 	ldp	x25, x26, [sp, #64]
    7450:	a8c67bfd 	ldp	x29, x30, [sp], #96
    7454:	d65f03c0 	ret
    7458:	aa1603e0 	mov	x0, x22
    745c:	940005cf 	bl	8b98 <putsgent@@Base+0x208>
    7460:	aa0003f4 	mov	x20, x0
    7464:	aa1303e0 	mov	x0, x19
    7468:	97ffef92 	bl	32b0 <free@plt>
    746c:	aa1603e0 	mov	x0, x22
    7470:	97ffef90 	bl	32b0 <free@plt>
    7474:	17ffffec 	b	7424 <ferror@plt+0x3f34>
    7478:	aa1303e0 	mov	x0, x19
    747c:	97ffef8d 	bl	32b0 <free@plt>
    7480:	aa1603e0 	mov	x0, x22
    7484:	d2800014 	mov	x20, #0x0                   	// #0
    7488:	97ffef8a 	bl	32b0 <free@plt>
    748c:	17ffffe6 	b	7424 <ferror@plt+0x3f34>
    7490:	97ffef34 	bl	3160 <__stack_chk_fail@plt>
    7494:	d503201f 	nop
    7498:	a9ba7bfd 	stp	x29, x30, [sp, #-96]!
    749c:	910003fd 	mov	x29, sp
    74a0:	a9046bf9 	stp	x25, x26, [sp, #64]
    74a4:	900000ba 	adrp	x26, 1b000 <putsgent@@Base+0x12670>
    74a8:	f947e741 	ldr	x1, [x26, #4040]
    74ac:	a90153f3 	stp	x19, x20, [sp, #16]
    74b0:	f9400022 	ldr	x2, [x1]
    74b4:	f9002fe2 	str	x2, [sp, #88]
    74b8:	d2800002 	mov	x2, #0x0                   	// #0
    74bc:	a9025bf5 	stp	x21, x22, [sp, #32]
    74c0:	a90363f7 	stp	x23, x24, [sp, #48]
    74c4:	aa0003f7 	mov	x23, x0
    74c8:	d2800400 	mov	x0, #0x20                  	// #32
    74cc:	97ffeecd 	bl	3000 <malloc@plt>
    74d0:	b40004a0 	cbz	x0, 7564 <ferror@plt+0x4074>
    74d4:	aa0003f6 	mov	x22, x0
    74d8:	910143f8 	add	x24, sp, #0x50
    74dc:	d2802015 	mov	x21, #0x100                 	// #256
    74e0:	d2800013 	mov	x19, #0x0                   	// #0
    74e4:	92f80019 	mov	x25, #0x3fffffffffffffff    	// #4611686018427387903
    74e8:	aa1303e0 	mov	x0, x19
    74ec:	aa1503e1 	mov	x1, x21
    74f0:	f9002bff 	str	xzr, [sp, #80]
    74f4:	97ffef0b 	bl	3120 <realloc@plt>
    74f8:	aa0003f3 	mov	x19, x0
    74fc:	b4000340 	cbz	x0, 7564 <ferror@plt+0x4074>
    7500:	97ffefd0 	bl	3440 <__errno_location@plt>
    7504:	aa0003f4 	mov	x20, x0
    7508:	aa1803e4 	mov	x4, x24
    750c:	aa1503e3 	mov	x3, x21
    7510:	aa1303e2 	mov	x2, x19
    7514:	aa1603e1 	mov	x1, x22
    7518:	b900029f 	str	wzr, [x20]
    751c:	aa1703e0 	mov	x0, x23
    7520:	97ffef58 	bl	3280 <getgrnam_r@plt>
    7524:	35000080 	cbnz	w0, 7534 <ferror@plt+0x4044>
    7528:	f9402be0 	ldr	x0, [sp, #80]
    752c:	eb16001f 	cmp	x0, x22
    7530:	54000640 	b.eq	75f8 <ferror@plt+0x4108>  // b.none
    7534:	b9400280 	ldr	w0, [x20]
    7538:	7100881f 	cmp	w0, #0x22
    753c:	540003a1 	b.ne	75b0 <ferror@plt+0x40c0>  // b.any
    7540:	eb1902bf 	cmp	x21, x25
    7544:	540002e8 	b.hi	75a0 <ferror@plt+0x40b0>  // b.pmore
    7548:	d37ef6b5 	lsl	x21, x21, #2
    754c:	aa1303e0 	mov	x0, x19
    7550:	aa1503e1 	mov	x1, x21
    7554:	f9002bff 	str	xzr, [sp, #80]
    7558:	97ffeef2 	bl	3120 <realloc@plt>
    755c:	aa0003f3 	mov	x19, x0
    7560:	b5fffd00 	cbnz	x0, 7500 <ferror@plt+0x4010>
    7564:	900000a3 	adrp	x3, 1b000 <putsgent@@Base+0x12670>
    7568:	528000a2 	mov	w2, #0x5                   	// #5
    756c:	d0000001 	adrp	x1, 9000 <putsgent@@Base+0x670>
    7570:	91294021 	add	x1, x1, #0xa50
    7574:	f947d063 	ldr	x3, [x3, #4000]
    7578:	f9400073 	ldr	x19, [x3]
    757c:	97ffef91 	bl	33c0 <dcgettext@plt>
    7580:	d0000003 	adrp	x3, 9000 <putsgent@@Base+0x670>
    7584:	aa0003e2 	mov	x2, x0
    7588:	9129e063 	add	x3, x3, #0xa78
    758c:	52800021 	mov	w1, #0x1                   	// #1
    7590:	aa1303e0 	mov	x0, x19
    7594:	97ffef2b 	bl	3240 <__fprintf_chk@plt>
    7598:	528001a0 	mov	w0, #0xd                   	// #13
    759c:	97ffee1d 	bl	2e10 <exit@plt>
    75a0:	b10006bf 	cmn	x21, #0x1
    75a4:	540003a0 	b.eq	7618 <ferror@plt+0x4128>  // b.none
    75a8:	92800015 	mov	x21, #0xffffffffffffffff    	// #-1
    75ac:	17ffffcf 	b	74e8 <ferror@plt+0x3ff8>
    75b0:	aa1303e0 	mov	x0, x19
    75b4:	97ffef3f 	bl	32b0 <free@plt>
    75b8:	aa1603e0 	mov	x0, x22
    75bc:	d2800014 	mov	x20, #0x0                   	// #0
    75c0:	97ffef3c 	bl	32b0 <free@plt>
    75c4:	f947e75a 	ldr	x26, [x26, #4040]
    75c8:	f9402fe0 	ldr	x0, [sp, #88]
    75cc:	f9400341 	ldr	x1, [x26]
    75d0:	eb010000 	subs	x0, x0, x1
    75d4:	d2800001 	mov	x1, #0x0                   	// #0
    75d8:	540002c1 	b.ne	7630 <ferror@plt+0x4140>  // b.any
    75dc:	aa1403e0 	mov	x0, x20
    75e0:	a94153f3 	ldp	x19, x20, [sp, #16]
    75e4:	a9425bf5 	ldp	x21, x22, [sp, #32]
    75e8:	a94363f7 	ldp	x23, x24, [sp, #48]
    75ec:	a9446bf9 	ldp	x25, x26, [sp, #64]
    75f0:	a8c67bfd 	ldp	x29, x30, [sp], #96
    75f4:	d65f03c0 	ret
    75f8:	aa1603e0 	mov	x0, x22
    75fc:	94000385 	bl	8410 <ferror@plt+0x4f20>
    7600:	aa0003f4 	mov	x20, x0
    7604:	aa1303e0 	mov	x0, x19
    7608:	97ffef2a 	bl	32b0 <free@plt>
    760c:	aa1603e0 	mov	x0, x22
    7610:	97ffef28 	bl	32b0 <free@plt>
    7614:	17ffffec 	b	75c4 <ferror@plt+0x40d4>
    7618:	aa1303e0 	mov	x0, x19
    761c:	97ffef25 	bl	32b0 <free@plt>
    7620:	aa1603e0 	mov	x0, x22
    7624:	d2800014 	mov	x20, #0x0                   	// #0
    7628:	97ffef22 	bl	32b0 <free@plt>
    762c:	17ffffe6 	b	75c4 <ferror@plt+0x40d4>
    7630:	97ffeecc 	bl	3160 <__stack_chk_fail@plt>
    7634:	d503201f 	nop
    7638:	a9ba7bfd 	stp	x29, x30, [sp, #-96]!
    763c:	910003fd 	mov	x29, sp
    7640:	a9046bf9 	stp	x25, x26, [sp, #64]
    7644:	900000ba 	adrp	x26, 1b000 <putsgent@@Base+0x12670>
    7648:	f947e741 	ldr	x1, [x26, #4040]
    764c:	a90153f3 	stp	x19, x20, [sp, #16]
    7650:	f9400022 	ldr	x2, [x1]
    7654:	f9002fe2 	str	x2, [sp, #88]
    7658:	d2800002 	mov	x2, #0x0                   	// #0
    765c:	a9025bf5 	stp	x21, x22, [sp, #32]
    7660:	a90363f7 	stp	x23, x24, [sp, #48]
    7664:	2a0003f7 	mov	w23, w0
    7668:	d2800400 	mov	x0, #0x20                  	// #32
    766c:	97ffee65 	bl	3000 <malloc@plt>
    7670:	b40004a0 	cbz	x0, 7704 <ferror@plt+0x4214>
    7674:	aa0003f6 	mov	x22, x0
    7678:	910143f8 	add	x24, sp, #0x50
    767c:	d2802015 	mov	x21, #0x100                 	// #256
    7680:	d2800013 	mov	x19, #0x0                   	// #0
    7684:	92f80019 	mov	x25, #0x3fffffffffffffff    	// #4611686018427387903
    7688:	aa1303e0 	mov	x0, x19
    768c:	aa1503e1 	mov	x1, x21
    7690:	f9002bff 	str	xzr, [sp, #80]
    7694:	97ffeea3 	bl	3120 <realloc@plt>
    7698:	aa0003f3 	mov	x19, x0
    769c:	b4000340 	cbz	x0, 7704 <ferror@plt+0x4214>
    76a0:	97ffef68 	bl	3440 <__errno_location@plt>
    76a4:	aa0003f4 	mov	x20, x0
    76a8:	aa1803e4 	mov	x4, x24
    76ac:	aa1503e3 	mov	x3, x21
    76b0:	aa1303e2 	mov	x2, x19
    76b4:	aa1603e1 	mov	x1, x22
    76b8:	b900029f 	str	wzr, [x20]
    76bc:	2a1703e0 	mov	w0, w23
    76c0:	97ffeec4 	bl	31d0 <getgrgid_r@plt>
    76c4:	35000080 	cbnz	w0, 76d4 <ferror@plt+0x41e4>
    76c8:	f9402be0 	ldr	x0, [sp, #80]
    76cc:	eb16001f 	cmp	x0, x22
    76d0:	54000640 	b.eq	7798 <ferror@plt+0x42a8>  // b.none
    76d4:	b9400280 	ldr	w0, [x20]
    76d8:	7100881f 	cmp	w0, #0x22
    76dc:	540003a1 	b.ne	7750 <ferror@plt+0x4260>  // b.any
    76e0:	eb1902bf 	cmp	x21, x25
    76e4:	540002e8 	b.hi	7740 <ferror@plt+0x4250>  // b.pmore
    76e8:	d37ef6b5 	lsl	x21, x21, #2
    76ec:	aa1303e0 	mov	x0, x19
    76f0:	aa1503e1 	mov	x1, x21
    76f4:	f9002bff 	str	xzr, [sp, #80]
    76f8:	97ffee8a 	bl	3120 <realloc@plt>
    76fc:	aa0003f3 	mov	x19, x0
    7700:	b5fffd00 	cbnz	x0, 76a0 <ferror@plt+0x41b0>
    7704:	900000a3 	adrp	x3, 1b000 <putsgent@@Base+0x12670>
    7708:	528000a2 	mov	w2, #0x5                   	// #5
    770c:	d0000001 	adrp	x1, 9000 <putsgent@@Base+0x670>
    7710:	91294021 	add	x1, x1, #0xa50
    7714:	f947d063 	ldr	x3, [x3, #4000]
    7718:	f9400073 	ldr	x19, [x3]
    771c:	97ffef29 	bl	33c0 <dcgettext@plt>
    7720:	d0000003 	adrp	x3, 9000 <putsgent@@Base+0x670>
    7724:	aa0003e2 	mov	x2, x0
    7728:	912a2063 	add	x3, x3, #0xa88
    772c:	52800021 	mov	w1, #0x1                   	// #1
    7730:	aa1303e0 	mov	x0, x19
    7734:	97ffeec3 	bl	3240 <__fprintf_chk@plt>
    7738:	528001a0 	mov	w0, #0xd                   	// #13
    773c:	97ffedb5 	bl	2e10 <exit@plt>
    7740:	b10006bf 	cmn	x21, #0x1
    7744:	540003a0 	b.eq	77b8 <ferror@plt+0x42c8>  // b.none
    7748:	92800015 	mov	x21, #0xffffffffffffffff    	// #-1
    774c:	17ffffcf 	b	7688 <ferror@plt+0x4198>
    7750:	aa1303e0 	mov	x0, x19
    7754:	97ffeed7 	bl	32b0 <free@plt>
    7758:	aa1603e0 	mov	x0, x22
    775c:	d2800014 	mov	x20, #0x0                   	// #0
    7760:	97ffeed4 	bl	32b0 <free@plt>
    7764:	f947e75a 	ldr	x26, [x26, #4040]
    7768:	f9402fe0 	ldr	x0, [sp, #88]
    776c:	f9400341 	ldr	x1, [x26]
    7770:	eb010000 	subs	x0, x0, x1
    7774:	d2800001 	mov	x1, #0x0                   	// #0
    7778:	540002c1 	b.ne	77d0 <ferror@plt+0x42e0>  // b.any
    777c:	aa1403e0 	mov	x0, x20
    7780:	a94153f3 	ldp	x19, x20, [sp, #16]
    7784:	a9425bf5 	ldp	x21, x22, [sp, #32]
    7788:	a94363f7 	ldp	x23, x24, [sp, #48]
    778c:	a9446bf9 	ldp	x25, x26, [sp, #64]
    7790:	a8c67bfd 	ldp	x29, x30, [sp], #96
    7794:	d65f03c0 	ret
    7798:	aa1603e0 	mov	x0, x22
    779c:	9400031d 	bl	8410 <ferror@plt+0x4f20>
    77a0:	aa0003f4 	mov	x20, x0
    77a4:	aa1303e0 	mov	x0, x19
    77a8:	97ffeec2 	bl	32b0 <free@plt>
    77ac:	aa1603e0 	mov	x0, x22
    77b0:	97ffeec0 	bl	32b0 <free@plt>
    77b4:	17ffffec 	b	7764 <ferror@plt+0x4274>
    77b8:	aa1303e0 	mov	x0, x19
    77bc:	97ffeebd 	bl	32b0 <free@plt>
    77c0:	aa1603e0 	mov	x0, x22
    77c4:	d2800014 	mov	x20, #0x0                   	// #0
    77c8:	97ffeeba 	bl	32b0 <free@plt>
    77cc:	17ffffe6 	b	7764 <ferror@plt+0x4274>
    77d0:	97ffee64 	bl	3160 <__stack_chk_fail@plt>
    77d4:	d503201f 	nop
    77d8:	a9bd7bfd 	stp	x29, x30, [sp, #-48]!
    77dc:	910003fd 	mov	x29, sp
    77e0:	97ffee08 	bl	3000 <malloc@plt>
    77e4:	b4000060 	cbz	x0, 77f0 <ferror@plt+0x4300>
    77e8:	a8c37bfd 	ldp	x29, x30, [sp], #48
    77ec:	d65f03c0 	ret
    77f0:	900000a3 	adrp	x3, 1b000 <putsgent@@Base+0x12670>
    77f4:	528000a2 	mov	w2, #0x5                   	// #5
    77f8:	d0000001 	adrp	x1, 9000 <putsgent@@Base+0x670>
    77fc:	912a6021 	add	x1, x1, #0xa98
    7800:	f947d063 	ldr	x3, [x3, #4000]
    7804:	a90153f3 	stp	x19, x20, [sp, #16]
    7808:	f9400073 	ldr	x19, [x3]
    780c:	f90013f5 	str	x21, [sp, #32]
    7810:	97ffeeec 	bl	33c0 <dcgettext@plt>
    7814:	aa0003f4 	mov	x20, x0
    7818:	900000a1 	adrp	x1, 1b000 <putsgent@@Base+0x12670>
    781c:	f947d821 	ldr	x1, [x1, #4016]
    7820:	f9400035 	ldr	x21, [x1]
    7824:	97ffef07 	bl	3440 <__errno_location@plt>
    7828:	b9400000 	ldr	w0, [x0]
    782c:	97ffee49 	bl	3150 <strerror@plt>
    7830:	aa0003e4 	mov	x4, x0
    7834:	aa1503e3 	mov	x3, x21
    7838:	aa1403e2 	mov	x2, x20
    783c:	52800021 	mov	w1, #0x1                   	// #1
    7840:	aa1303e0 	mov	x0, x19
    7844:	97ffee7f 	bl	3240 <__fprintf_chk@plt>
    7848:	528001a0 	mov	w0, #0xd                   	// #13
    784c:	97ffed71 	bl	2e10 <exit@plt>
    7850:	a9be7bfd 	stp	x29, x30, [sp, #-32]!
    7854:	910003fd 	mov	x29, sp
    7858:	f9000bf3 	str	x19, [sp, #16]
    785c:	aa0003f3 	mov	x19, x0
    7860:	97ffed60 	bl	2de0 <strlen@plt>
    7864:	91000400 	add	x0, x0, #0x1
    7868:	97ffffdc 	bl	77d8 <ferror@plt+0x42e8>
    786c:	aa1303e1 	mov	x1, x19
    7870:	f9400bf3 	ldr	x19, [sp, #16]
    7874:	a8c27bfd 	ldp	x29, x30, [sp], #32
    7878:	17ffeeaa 	b	3320 <strcpy@plt>
    787c:	d503201f 	nop
    7880:	a9bd7bfd 	stp	x29, x30, [sp, #-48]!
    7884:	910003fd 	mov	x29, sp
    7888:	f90013f5 	str	x21, [sp, #32]
    788c:	b00000b5 	adrp	x21, 1c000 <putsgent@@Base+0x13670>
    7890:	a90153f3 	stp	x19, x20, [sp, #16]
    7894:	aa0003f4 	mov	x20, x0
    7898:	f94066a0 	ldr	x0, [x21, #200]
    789c:	b40001a0 	cbz	x0, 78d0 <ferror@plt+0x43e0>
    78a0:	910322b3 	add	x19, x21, #0xc8
    78a4:	14000003 	b	78b0 <ferror@plt+0x43c0>
    78a8:	f8410e60 	ldr	x0, [x19, #16]!
    78ac:	b4000120 	cbz	x0, 78d0 <ferror@plt+0x43e0>
    78b0:	aa1403e1 	mov	x1, x20
    78b4:	97ffee67 	bl	3250 <strcmp@plt>
    78b8:	35ffff80 	cbnz	w0, 78a8 <ferror@plt+0x43b8>
    78bc:	aa1303e0 	mov	x0, x19
    78c0:	a94153f3 	ldp	x19, x20, [sp, #16]
    78c4:	f94013f5 	ldr	x21, [sp, #32]
    78c8:	a8c37bfd 	ldp	x29, x30, [sp], #48
    78cc:	d65f03c0 	ret
    78d0:	910322b5 	add	x21, x21, #0xc8
    78d4:	910dc2b3 	add	x19, x21, #0x370
    78d8:	f941baa0 	ldr	x0, [x21, #880]
    78dc:	b5000580 	cbnz	x0, 798c <ferror@plt+0x449c>
    78e0:	900000a3 	adrp	x3, 1b000 <putsgent@@Base+0x12670>
    78e4:	528000a2 	mov	w2, #0x5                   	// #5
    78e8:	d0000001 	adrp	x1, 9000 <putsgent@@Base+0x670>
    78ec:	d2800000 	mov	x0, #0x0                   	// #0
    78f0:	f947d063 	ldr	x3, [x3, #4000]
    78f4:	912b0021 	add	x1, x1, #0xac0
    78f8:	f9400073 	ldr	x19, [x3]
    78fc:	97ffeeb1 	bl	33c0 <dcgettext@plt>
    7900:	aa1403e3 	mov	x3, x20
    7904:	aa0003e2 	mov	x2, x0
    7908:	52800021 	mov	w1, #0x1                   	// #1
    790c:	aa1303e0 	mov	x0, x19
    7910:	97ffee4c 	bl	3240 <__fprintf_chk@plt>
    7914:	d2800001 	mov	x1, #0x0                   	// #0
    7918:	528000c0 	mov	w0, #0x6                   	// #6
    791c:	97ffeef1 	bl	34e0 <setlocale@plt>
    7920:	b4000480 	cbz	x0, 79b0 <ferror@plt+0x44c0>
    7924:	97ffee07 	bl	3140 <strdup@plt>
    7928:	aa0003f5 	mov	x21, x0
    792c:	b4000420 	cbz	x0, 79b0 <ferror@plt+0x44c0>
    7930:	b0000001 	adrp	x1, 8000 <ferror@plt+0x4b10>
    7934:	528000c0 	mov	w0, #0x6                   	// #6
    7938:	91394021 	add	x1, x1, #0xe50
    793c:	97ffeee9 	bl	34e0 <setlocale@plt>
    7940:	aa1403e3 	mov	x3, x20
    7944:	52800021 	mov	w1, #0x1                   	// #1
    7948:	52800040 	mov	w0, #0x2                   	// #2
    794c:	d0000002 	adrp	x2, 9000 <putsgent@@Base+0x670>
    7950:	912c0042 	add	x2, x2, #0xb00
    7954:	97ffee67 	bl	32f0 <__syslog_chk@plt>
    7958:	aa1503e1 	mov	x1, x21
    795c:	528000c0 	mov	w0, #0x6                   	// #6
    7960:	d2800013 	mov	x19, #0x0                   	// #0
    7964:	97ffeedf 	bl	34e0 <setlocale@plt>
    7968:	aa1503e0 	mov	x0, x21
    796c:	97ffee51 	bl	32b0 <free@plt>
    7970:	aa1303e0 	mov	x0, x19
    7974:	a94153f3 	ldp	x19, x20, [sp, #16]
    7978:	f94013f5 	ldr	x21, [sp, #32]
    797c:	a8c37bfd 	ldp	x29, x30, [sp], #48
    7980:	d65f03c0 	ret
    7984:	f8410e60 	ldr	x0, [x19, #16]!
    7988:	b4fffac0 	cbz	x0, 78e0 <ferror@plt+0x43f0>
    798c:	aa1403e1 	mov	x1, x20
    7990:	97ffee30 	bl	3250 <strcmp@plt>
    7994:	35ffff80 	cbnz	w0, 7984 <ferror@plt+0x4494>
    7998:	d2800013 	mov	x19, #0x0                   	// #0
    799c:	aa1303e0 	mov	x0, x19
    79a0:	a94153f3 	ldp	x19, x20, [sp, #16]
    79a4:	f94013f5 	ldr	x21, [sp, #32]
    79a8:	a8c37bfd 	ldp	x29, x30, [sp], #48
    79ac:	d65f03c0 	ret
    79b0:	aa1403e3 	mov	x3, x20
    79b4:	52800021 	mov	w1, #0x1                   	// #1
    79b8:	52800040 	mov	w0, #0x2                   	// #2
    79bc:	d2800013 	mov	x19, #0x0                   	// #0
    79c0:	d0000002 	adrp	x2, 9000 <putsgent@@Base+0x670>
    79c4:	912c0042 	add	x2, x2, #0xb00
    79c8:	97ffee4a 	bl	32f0 <__syslog_chk@plt>
    79cc:	aa1303e0 	mov	x0, x19
    79d0:	a94153f3 	ldp	x19, x20, [sp, #16]
    79d4:	f94013f5 	ldr	x21, [sp, #32]
    79d8:	a8c37bfd 	ldp	x29, x30, [sp], #48
    79dc:	d65f03c0 	ret
    79e0:	a9be7bfd 	stp	x29, x30, [sp, #-32]!
    79e4:	b00000a2 	adrp	x2, 1c000 <putsgent@@Base+0x13670>
    79e8:	910003fd 	mov	x29, sp
    79ec:	a90153f3 	stp	x19, x20, [sp, #16]
    79f0:	aa0003f3 	mov	x19, x0
    79f4:	395f4440 	ldrb	w0, [x2, #2001]
    79f8:	aa0103f4 	mov	x20, x1
    79fc:	34000220 	cbz	w0, 7a40 <ferror@plt+0x4550>
    7a00:	aa1303e0 	mov	x0, x19
    7a04:	97ffff9f 	bl	7880 <ferror@plt+0x4390>
    7a08:	aa0003f3 	mov	x19, x0
    7a0c:	b4000280 	cbz	x0, 7a5c <ferror@plt+0x456c>
    7a10:	aa1403e0 	mov	x0, x20
    7a14:	97ffedcb 	bl	3140 <strdup@plt>
    7a18:	aa0003f4 	mov	x20, x0
    7a1c:	b4000240 	cbz	x0, 7a64 <ferror@plt+0x4574>
    7a20:	f9400660 	ldr	x0, [x19, #8]
    7a24:	b4000040 	cbz	x0, 7a2c <ferror@plt+0x453c>
    7a28:	97ffee22 	bl	32b0 <free@plt>
    7a2c:	52800000 	mov	w0, #0x0                   	// #0
    7a30:	f9000674 	str	x20, [x19, #8]
    7a34:	a94153f3 	ldp	x19, x20, [sp, #16]
    7a38:	a8c27bfd 	ldp	x29, x30, [sp], #32
    7a3c:	d65f03c0 	ret
    7a40:	94000028 	bl	7ae0 <ferror@plt+0x45f0>
    7a44:	17ffffef 	b	7a00 <ferror@plt+0x4510>
    7a48:	d0000002 	adrp	x2, 9000 <putsgent@@Base+0x670>
    7a4c:	52800021 	mov	w1, #0x1                   	// #1
    7a50:	912d4042 	add	x2, x2, #0xb50
    7a54:	52800060 	mov	w0, #0x3                   	// #3
    7a58:	97ffee26 	bl	32f0 <__syslog_chk@plt>
    7a5c:	12800000 	mov	w0, #0xffffffff            	// #-1
    7a60:	17fffff5 	b	7a34 <ferror@plt+0x4544>
    7a64:	528000a2 	mov	w2, #0x5                   	// #5
    7a68:	d0000001 	adrp	x1, 9000 <putsgent@@Base+0x670>
    7a6c:	912c8021 	add	x1, x1, #0xb20
    7a70:	97ffee54 	bl	33c0 <dcgettext@plt>
    7a74:	900000a1 	adrp	x1, 1b000 <putsgent@@Base+0x12670>
    7a78:	f947d021 	ldr	x1, [x1, #4000]
    7a7c:	f9400021 	ldr	x1, [x1]
    7a80:	97ffece0 	bl	2e00 <fputs@plt>
    7a84:	d2800001 	mov	x1, #0x0                   	// #0
    7a88:	528000c0 	mov	w0, #0x6                   	// #6
    7a8c:	97ffee95 	bl	34e0 <setlocale@plt>
    7a90:	b4fffdc0 	cbz	x0, 7a48 <ferror@plt+0x4558>
    7a94:	97ffedab 	bl	3140 <strdup@plt>
    7a98:	aa0003f3 	mov	x19, x0
    7a9c:	b4fffd60 	cbz	x0, 7a48 <ferror@plt+0x4558>
    7aa0:	b0000001 	adrp	x1, 8000 <ferror@plt+0x4b10>
    7aa4:	528000c0 	mov	w0, #0x6                   	// #6
    7aa8:	91394021 	add	x1, x1, #0xe50
    7aac:	97ffee8d 	bl	34e0 <setlocale@plt>
    7ab0:	52800021 	mov	w1, #0x1                   	// #1
    7ab4:	52800060 	mov	w0, #0x3                   	// #3
    7ab8:	d0000002 	adrp	x2, 9000 <putsgent@@Base+0x670>
    7abc:	912d4042 	add	x2, x2, #0xb50
    7ac0:	97ffee0c 	bl	32f0 <__syslog_chk@plt>
    7ac4:	aa1303e1 	mov	x1, x19
    7ac8:	528000c0 	mov	w0, #0x6                   	// #6
    7acc:	97ffee85 	bl	34e0 <setlocale@plt>
    7ad0:	aa1303e0 	mov	x0, x19
    7ad4:	97ffedf7 	bl	32b0 <free@plt>
    7ad8:	12800000 	mov	w0, #0xffffffff            	// #-1
    7adc:	17ffffd6 	b	7a34 <ferror@plt+0x4544>
    7ae0:	d11183ff 	sub	sp, sp, #0x460
    7ae4:	b00000a2 	adrp	x2, 1c000 <putsgent@@Base+0x13670>
    7ae8:	52800023 	mov	w3, #0x1                   	// #1
    7aec:	d0000001 	adrp	x1, 9000 <putsgent@@Base+0x670>
    7af0:	911ae021 	add	x1, x1, #0x6b8
    7af4:	a9007bfd 	stp	x29, x30, [sp]
    7af8:	910003fd 	mov	x29, sp
    7afc:	a90363f7 	stp	x23, x24, [sp, #48]
    7b00:	900000b7 	adrp	x23, 1b000 <putsgent@@Base+0x12670>
    7b04:	a90153f3 	stp	x19, x20, [sp, #16]
    7b08:	a9046bf9 	stp	x25, x26, [sp, #64]
    7b0c:	b00000b9 	adrp	x25, 1c000 <putsgent@@Base+0x13670>
    7b10:	91032333 	add	x19, x25, #0xc8
    7b14:	391f4443 	strb	w3, [x2, #2001]
    7b18:	f947e6e2 	ldr	x2, [x23, #4040]
    7b1c:	f9427260 	ldr	x0, [x19, #1248]
    7b20:	f9400043 	ldr	x3, [x2]
    7b24:	f9022fe3 	str	x3, [sp, #1112]
    7b28:	d2800003 	mov	x3, #0x0                   	// #0
    7b2c:	97ffed29 	bl	2fd0 <fopen@plt>
    7b30:	b4000b00 	cbz	x0, 7c90 <ferror@plt+0x47a0>
    7b34:	d0000018 	adrp	x24, 9000 <putsgent@@Base+0x670>
    7b38:	910163f4 	add	x20, sp, #0x58
    7b3c:	912ec318 	add	x24, x24, #0xbb0
    7b40:	a9025bf5 	stp	x21, x22, [sp, #32]
    7b44:	d0000016 	adrp	x22, 9000 <putsgent@@Base+0x670>
    7b48:	aa0003f5 	mov	x21, x0
    7b4c:	912ea2d6 	add	x22, x22, #0xba8
    7b50:	aa1503e2 	mov	x2, x21
    7b54:	aa1403e0 	mov	x0, x20
    7b58:	52808001 	mov	w1, #0x400                 	// #1024
    7b5c:	97ffee55 	bl	34b0 <fgets@plt>
    7b60:	b4000700 	cbz	x0, 7c40 <ferror@plt+0x4750>
    7b64:	aa1403e0 	mov	x0, x20
    7b68:	97ffec9e 	bl	2de0 <strlen@plt>
    7b6c:	aa0003f3 	mov	x19, x0
    7b70:	5100041a 	sub	w26, w0, #0x1
    7b74:	340008a0 	cbz	w0, 7c88 <ferror@plt+0x4798>
    7b78:	97ffedba 	bl	3260 <__ctype_b_loc@plt>
    7b7c:	93407e61 	sxtw	x1, w19
    7b80:	d1000421 	sub	x1, x1, #0x1
    7b84:	8b010281 	add	x1, x20, x1
    7b88:	f9400002 	ldr	x2, [x0]
    7b8c:	14000005 	b	7ba0 <ferror@plt+0x46b0>
    7b90:	5100075a 	sub	w26, w26, #0x1
    7b94:	d1000421 	sub	x1, x1, #0x1
    7b98:	3100075f 	cmn	w26, #0x1
    7b9c:	54000760 	b.eq	7c88 <ferror@plt+0x4798>  // b.none
    7ba0:	39400020 	ldrb	w0, [x1]
    7ba4:	78607840 	ldrh	w0, [x2, x0, lsl #1]
    7ba8:	376fff40 	tbnz	w0, #13, 7b90 <ferror@plt+0x46a0>
    7bac:	1100075a 	add	w26, w26, #0x1
    7bb0:	aa1603e1 	mov	x1, x22
    7bb4:	aa1403e0 	mov	x0, x20
    7bb8:	383aca9f 	strb	wzr, [x20, w26, sxtw]
    7bbc:	97ffedc1 	bl	32c0 <strspn@plt>
    7bc0:	8b000293 	add	x19, x20, x0
    7bc4:	38606a80 	ldrb	w0, [x20, x0]
    7bc8:	71008c1f 	cmp	w0, #0x23
    7bcc:	7a401804 	ccmp	w0, #0x0, #0x4, ne  // ne = any
    7bd0:	54fffc00 	b.eq	7b50 <ferror@plt+0x4660>  // b.none
    7bd4:	aa1603e1 	mov	x1, x22
    7bd8:	aa1303e0 	mov	x0, x19
    7bdc:	97ffee11 	bl	3420 <strcspn@plt>
    7be0:	aa0003e2 	mov	x2, x0
    7be4:	8b00027a 	add	x26, x19, x0
    7be8:	38606a60 	ldrb	w0, [x19, x0]
    7bec:	34fffb20 	cbz	w0, 7b50 <ferror@plt+0x4660>
    7bf0:	38226a7f 	strb	wzr, [x19, x2]
    7bf4:	9100075a 	add	x26, x26, #0x1
    7bf8:	aa1803e1 	mov	x1, x24
    7bfc:	aa1a03e0 	mov	x0, x26
    7c00:	97ffedb0 	bl	32c0 <strspn@plt>
    7c04:	8b00035a 	add	x26, x26, x0
    7c08:	aa1a03e0 	mov	x0, x26
    7c0c:	d0000001 	adrp	x1, 9000 <putsgent@@Base+0x670>
    7c10:	912ee021 	add	x1, x1, #0xbb8
    7c14:	97ffee03 	bl	3420 <strcspn@plt>
    7c18:	aa0003e2 	mov	x2, x0
    7c1c:	aa1a03e1 	mov	x1, x26
    7c20:	aa1303e0 	mov	x0, x19
    7c24:	38226b5f 	strb	wzr, [x26, x2]
    7c28:	97ffff6e 	bl	79e0 <ferror@plt+0x44f0>
    7c2c:	aa1503e2 	mov	x2, x21
    7c30:	aa1403e0 	mov	x0, x20
    7c34:	52808001 	mov	w1, #0x400                 	// #1024
    7c38:	97ffee1e 	bl	34b0 <fgets@plt>
    7c3c:	b5fff940 	cbnz	x0, 7b64 <ferror@plt+0x4674>
    7c40:	aa1503e0 	mov	x0, x21
    7c44:	97ffee2b 	bl	34f0 <ferror@plt>
    7c48:	350006a0 	cbnz	w0, 7d1c <ferror@plt+0x482c>
    7c4c:	aa1503e0 	mov	x0, x21
    7c50:	97ffecd8 	bl	2fb0 <fclose@plt>
    7c54:	a9425bf5 	ldp	x21, x22, [sp, #32]
    7c58:	f947e6f7 	ldr	x23, [x23, #4040]
    7c5c:	f9422fe0 	ldr	x0, [sp, #1112]
    7c60:	f94002e1 	ldr	x1, [x23]
    7c64:	eb010000 	subs	x0, x0, x1
    7c68:	d2800001 	mov	x1, #0x0                   	// #0
    7c6c:	54000541 	b.ne	7d14 <ferror@plt+0x4824>  // b.any
    7c70:	a9407bfd 	ldp	x29, x30, [sp]
    7c74:	a94153f3 	ldp	x19, x20, [sp, #16]
    7c78:	a94363f7 	ldp	x23, x24, [sp, #48]
    7c7c:	a9446bf9 	ldp	x25, x26, [sp, #64]
    7c80:	911183ff 	add	sp, sp, #0x460
    7c84:	d65f03c0 	ret
    7c88:	5280001a 	mov	w26, #0x0                   	// #0
    7c8c:	17ffffc9 	b	7bb0 <ferror@plt+0x46c0>
    7c90:	97ffedec 	bl	3440 <__errno_location@plt>
    7c94:	b9400014 	ldr	w20, [x0]
    7c98:	71000a9f 	cmp	w20, #0x2
    7c9c:	54fffde0 	b.eq	7c58 <ferror@plt+0x4768>  // b.none
    7ca0:	d2800001 	mov	x1, #0x0                   	// #0
    7ca4:	528000c0 	mov	w0, #0x6                   	// #6
    7ca8:	a9025bf5 	stp	x21, x22, [sp, #32]
    7cac:	97ffee0d 	bl	34e0 <setlocale@plt>
    7cb0:	f9427275 	ldr	x21, [x19, #1248]
    7cb4:	b4000640 	cbz	x0, 7d7c <ferror@plt+0x488c>
    7cb8:	97ffed22 	bl	3140 <strdup@plt>
    7cbc:	aa0003f3 	mov	x19, x0
    7cc0:	b40005e0 	cbz	x0, 7d7c <ferror@plt+0x488c>
    7cc4:	b0000001 	adrp	x1, 8000 <ferror@plt+0x4b10>
    7cc8:	91394021 	add	x1, x1, #0xe50
    7ccc:	528000c0 	mov	w0, #0x6                   	// #6
    7cd0:	97ffee04 	bl	34e0 <setlocale@plt>
    7cd4:	2a1403e0 	mov	w0, w20
    7cd8:	97ffed1e 	bl	3150 <strerror@plt>
    7cdc:	aa0003e4 	mov	x4, x0
    7ce0:	d0000002 	adrp	x2, 9000 <putsgent@@Base+0x670>
    7ce4:	aa1503e3 	mov	x3, x21
    7ce8:	912e0042 	add	x2, x2, #0xb80
    7cec:	52800021 	mov	w1, #0x1                   	// #1
    7cf0:	52800040 	mov	w0, #0x2                   	// #2
    7cf4:	97ffed7f 	bl	32f0 <__syslog_chk@plt>
    7cf8:	aa1303e1 	mov	x1, x19
    7cfc:	528000c0 	mov	w0, #0x6                   	// #6
    7d00:	97ffedf8 	bl	34e0 <setlocale@plt>
    7d04:	aa1303e0 	mov	x0, x19
    7d08:	97ffed6a 	bl	32b0 <free@plt>
    7d0c:	52800020 	mov	w0, #0x1                   	// #1
    7d10:	97ffec40 	bl	2e10 <exit@plt>
    7d14:	a9025bf5 	stp	x21, x22, [sp, #32]
    7d18:	97ffed12 	bl	3160 <__stack_chk_fail@plt>
    7d1c:	97ffedc9 	bl	3440 <__errno_location@plt>
    7d20:	91032339 	add	x25, x25, #0xc8
    7d24:	aa0003e2 	mov	x2, x0
    7d28:	d2800001 	mov	x1, #0x0                   	// #0
    7d2c:	528000c0 	mov	w0, #0x6                   	// #6
    7d30:	b9400055 	ldr	w21, [x2]
    7d34:	97ffedeb 	bl	34e0 <setlocale@plt>
    7d38:	f9427334 	ldr	x20, [x25, #1248]
    7d3c:	b4000340 	cbz	x0, 7da4 <ferror@plt+0x48b4>
    7d40:	97ffed00 	bl	3140 <strdup@plt>
    7d44:	aa0003f3 	mov	x19, x0
    7d48:	b40002e0 	cbz	x0, 7da4 <ferror@plt+0x48b4>
    7d4c:	b0000001 	adrp	x1, 8000 <ferror@plt+0x4b10>
    7d50:	91394021 	add	x1, x1, #0xe50
    7d54:	528000c0 	mov	w0, #0x6                   	// #6
    7d58:	97ffede2 	bl	34e0 <setlocale@plt>
    7d5c:	2a1503e0 	mov	w0, w21
    7d60:	97ffecfc 	bl	3150 <strerror@plt>
    7d64:	aa0003e4 	mov	x4, x0
    7d68:	d0000002 	adrp	x2, 9000 <putsgent@@Base+0x670>
    7d6c:	aa1403e3 	mov	x3, x20
    7d70:	912f0042 	add	x2, x2, #0xbc0
    7d74:	52800021 	mov	w1, #0x1                   	// #1
    7d78:	17ffffde 	b	7cf0 <ferror@plt+0x4800>
    7d7c:	2a1403e0 	mov	w0, w20
    7d80:	97ffecf4 	bl	3150 <strerror@plt>
    7d84:	aa1503e3 	mov	x3, x21
    7d88:	aa0003e4 	mov	x4, x0
    7d8c:	d0000002 	adrp	x2, 9000 <putsgent@@Base+0x670>
    7d90:	52800021 	mov	w1, #0x1                   	// #1
    7d94:	912e0042 	add	x2, x2, #0xb80
    7d98:	52800040 	mov	w0, #0x2                   	// #2
    7d9c:	97ffed55 	bl	32f0 <__syslog_chk@plt>
    7da0:	17ffffdb 	b	7d0c <ferror@plt+0x481c>
    7da4:	2a1503e0 	mov	w0, w21
    7da8:	97ffecea 	bl	3150 <strerror@plt>
    7dac:	aa1403e3 	mov	x3, x20
    7db0:	aa0003e4 	mov	x4, x0
    7db4:	d0000002 	adrp	x2, 9000 <putsgent@@Base+0x670>
    7db8:	52800021 	mov	w1, #0x1                   	// #1
    7dbc:	912f0042 	add	x2, x2, #0xbc0
    7dc0:	52800040 	mov	w0, #0x2                   	// #2
    7dc4:	97ffed4b 	bl	32f0 <__syslog_chk@plt>
    7dc8:	17ffffd1 	b	7d0c <ferror@plt+0x481c>
    7dcc:	d503201f 	nop
    7dd0:	a9be7bfd 	stp	x29, x30, [sp, #-32]!
    7dd4:	b00000a1 	adrp	x1, 1c000 <putsgent@@Base+0x13670>
    7dd8:	910003fd 	mov	x29, sp
    7ddc:	f9000bf3 	str	x19, [sp, #16]
    7de0:	aa0003f3 	mov	x19, x0
    7de4:	395f4420 	ldrb	w0, [x1, #2001]
    7de8:	34000100 	cbz	w0, 7e08 <ferror@plt+0x4918>
    7dec:	aa1303e0 	mov	x0, x19
    7df0:	97fffea4 	bl	7880 <ferror@plt+0x4390>
    7df4:	b4000040 	cbz	x0, 7dfc <ferror@plt+0x490c>
    7df8:	f9400400 	ldr	x0, [x0, #8]
    7dfc:	f9400bf3 	ldr	x19, [sp, #16]
    7e00:	a8c27bfd 	ldp	x29, x30, [sp], #32
    7e04:	d65f03c0 	ret
    7e08:	97ffff36 	bl	7ae0 <ferror@plt+0x45f0>
    7e0c:	17fffff8 	b	7dec <ferror@plt+0x48fc>
    7e10:	a9be7bfd 	stp	x29, x30, [sp, #-32]!
    7e14:	b00000a1 	adrp	x1, 1c000 <putsgent@@Base+0x13670>
    7e18:	910003fd 	mov	x29, sp
    7e1c:	f9000bf3 	str	x19, [sp, #16]
    7e20:	aa0003f3 	mov	x19, x0
    7e24:	395f4420 	ldrb	w0, [x1, #2001]
    7e28:	340001c0 	cbz	w0, 7e60 <ferror@plt+0x4970>
    7e2c:	aa1303e0 	mov	x0, x19
    7e30:	97fffe94 	bl	7880 <ferror@plt+0x4390>
    7e34:	b40001e0 	cbz	x0, 7e70 <ferror@plt+0x4980>
    7e38:	f9400400 	ldr	x0, [x0, #8]
    7e3c:	b40001a0 	cbz	x0, 7e70 <ferror@plt+0x4980>
    7e40:	d0000001 	adrp	x1, 9000 <putsgent@@Base+0x670>
    7e44:	912fa021 	add	x1, x1, #0xbe8
    7e48:	97ffecb2 	bl	3110 <strcasecmp@plt>
    7e4c:	7100001f 	cmp	w0, #0x0
    7e50:	1a9f17e0 	cset	w0, eq  // eq = none
    7e54:	f9400bf3 	ldr	x19, [sp, #16]
    7e58:	a8c27bfd 	ldp	x29, x30, [sp], #32
    7e5c:	d65f03c0 	ret
    7e60:	97ffff20 	bl	7ae0 <ferror@plt+0x45f0>
    7e64:	aa1303e0 	mov	x0, x19
    7e68:	97fffe86 	bl	7880 <ferror@plt+0x4390>
    7e6c:	b5fffe60 	cbnz	x0, 7e38 <ferror@plt+0x4948>
    7e70:	52800000 	mov	w0, #0x0                   	// #0
    7e74:	f9400bf3 	ldr	x19, [sp, #16]
    7e78:	a8c27bfd 	ldp	x29, x30, [sp], #32
    7e7c:	d65f03c0 	ret
    7e80:	a9bb7bfd 	stp	x29, x30, [sp, #-80]!
    7e84:	b00000a3 	adrp	x3, 1c000 <putsgent@@Base+0x13670>
    7e88:	910003fd 	mov	x29, sp
    7e8c:	a90153f3 	stp	x19, x20, [sp, #16]
    7e90:	900000b4 	adrp	x20, 1b000 <putsgent@@Base+0x12670>
    7e94:	f947e682 	ldr	x2, [x20, #4040]
    7e98:	a9025bf5 	stp	x21, x22, [sp, #32]
    7e9c:	aa0003f5 	mov	x21, x0
    7ea0:	395f4460 	ldrb	w0, [x3, #2001]
    7ea4:	2a0103f6 	mov	w22, w1
    7ea8:	f9400041 	ldr	x1, [x2]
    7eac:	f90027e1 	str	x1, [sp, #72]
    7eb0:	d2800001 	mov	x1, #0x0                   	// #0
    7eb4:	34000560 	cbz	w0, 7f60 <ferror@plt+0x4a70>
    7eb8:	aa1503e0 	mov	x0, x21
    7ebc:	97fffe71 	bl	7880 <ferror@plt+0x4390>
    7ec0:	aa0003f3 	mov	x19, x0
    7ec4:	b4000380 	cbz	x0, 7f34 <ferror@plt+0x4a44>
    7ec8:	f9400400 	ldr	x0, [x0, #8]
    7ecc:	b4000340 	cbz	x0, 7f34 <ferror@plt+0x4a44>
    7ed0:	910103e1 	add	x1, sp, #0x40
    7ed4:	940000d9 	bl	8238 <ferror@plt+0x4d48>
    7ed8:	340000e0 	cbz	w0, 7ef4 <ferror@plt+0x4a04>
    7edc:	f94023e1 	ldr	x1, [sp, #64]
    7ee0:	d2b00000 	mov	x0, #0x80000000            	// #2147483648
    7ee4:	b2407fe2 	mov	x2, #0xffffffff            	// #4294967295
    7ee8:	8b000020 	add	x0, x1, x0
    7eec:	eb02001f 	cmp	x0, x2
    7ef0:	540003c9 	b.ls	7f68 <ferror@plt+0x4a78>  // b.plast
    7ef4:	900000a3 	adrp	x3, 1b000 <putsgent@@Base+0x12670>
    7ef8:	528000a2 	mov	w2, #0x5                   	// #5
    7efc:	d0000001 	adrp	x1, 9000 <putsgent@@Base+0x670>
    7f00:	d2800000 	mov	x0, #0x0                   	// #0
    7f04:	f947d063 	ldr	x3, [x3, #4000]
    7f08:	912fc021 	add	x1, x1, #0xbf0
    7f0c:	f9001bf7 	str	x23, [sp, #48]
    7f10:	f9400077 	ldr	x23, [x3]
    7f14:	97ffed2b 	bl	33c0 <dcgettext@plt>
    7f18:	f9400664 	ldr	x4, [x19, #8]
    7f1c:	aa0003e2 	mov	x2, x0
    7f20:	aa1503e3 	mov	x3, x21
    7f24:	aa1703e0 	mov	x0, x23
    7f28:	52800021 	mov	w1, #0x1                   	// #1
    7f2c:	97ffecc5 	bl	3240 <__fprintf_chk@plt>
    7f30:	f9401bf7 	ldr	x23, [sp, #48]
    7f34:	f947e694 	ldr	x20, [x20, #4040]
    7f38:	f94027e0 	ldr	x0, [sp, #72]
    7f3c:	f9400281 	ldr	x1, [x20]
    7f40:	eb010000 	subs	x0, x0, x1
    7f44:	d2800001 	mov	x1, #0x0                   	// #0
    7f48:	54000141 	b.ne	7f70 <ferror@plt+0x4a80>  // b.any
    7f4c:	2a1603e0 	mov	w0, w22
    7f50:	a94153f3 	ldp	x19, x20, [sp, #16]
    7f54:	a9425bf5 	ldp	x21, x22, [sp, #32]
    7f58:	a8c57bfd 	ldp	x29, x30, [sp], #80
    7f5c:	d65f03c0 	ret
    7f60:	97fffee0 	bl	7ae0 <ferror@plt+0x45f0>
    7f64:	17ffffd5 	b	7eb8 <ferror@plt+0x49c8>
    7f68:	2a0103f6 	mov	w22, w1
    7f6c:	17fffff2 	b	7f34 <ferror@plt+0x4a44>
    7f70:	f9001bf7 	str	x23, [sp, #48]
    7f74:	97ffec7b 	bl	3160 <__stack_chk_fail@plt>
    7f78:	a9bb7bfd 	stp	x29, x30, [sp, #-80]!
    7f7c:	b00000a3 	adrp	x3, 1c000 <putsgent@@Base+0x13670>
    7f80:	910003fd 	mov	x29, sp
    7f84:	a90153f3 	stp	x19, x20, [sp, #16]
    7f88:	900000b4 	adrp	x20, 1b000 <putsgent@@Base+0x12670>
    7f8c:	f947e682 	ldr	x2, [x20, #4040]
    7f90:	a9025bf5 	stp	x21, x22, [sp, #32]
    7f94:	aa0003f5 	mov	x21, x0
    7f98:	395f4460 	ldrb	w0, [x3, #2001]
    7f9c:	2a0103f6 	mov	w22, w1
    7fa0:	f9400041 	ldr	x1, [x2]
    7fa4:	f90027e1 	str	x1, [sp, #72]
    7fa8:	d2800001 	mov	x1, #0x0                   	// #0
    7fac:	34000560 	cbz	w0, 8058 <ferror@plt+0x4b68>
    7fb0:	aa1503e0 	mov	x0, x21
    7fb4:	97fffe33 	bl	7880 <ferror@plt+0x4390>
    7fb8:	aa0003f3 	mov	x19, x0
    7fbc:	b4000160 	cbz	x0, 7fe8 <ferror@plt+0x4af8>
    7fc0:	f9400400 	ldr	x0, [x0, #8]
    7fc4:	b4000120 	cbz	x0, 7fe8 <ferror@plt+0x4af8>
    7fc8:	910103e1 	add	x1, sp, #0x40
    7fcc:	9400009b 	bl	8238 <ferror@plt+0x4d48>
    7fd0:	34000220 	cbz	w0, 8014 <ferror@plt+0x4b24>
    7fd4:	f94023e0 	ldr	x0, [sp, #64]
    7fd8:	b2407be1 	mov	x1, #0x7fffffff            	// #2147483647
    7fdc:	eb01001f 	cmp	x0, x1
    7fe0:	540001a8 	b.hi	8014 <ferror@plt+0x4b24>  // b.pmore
    7fe4:	2a0003f6 	mov	w22, w0
    7fe8:	f947e694 	ldr	x20, [x20, #4040]
    7fec:	f94027e0 	ldr	x0, [sp, #72]
    7ff0:	f9400281 	ldr	x1, [x20]
    7ff4:	eb010000 	subs	x0, x0, x1
    7ff8:	d2800001 	mov	x1, #0x0                   	// #0
    7ffc:	54000321 	b.ne	8060 <ferror@plt+0x4b70>  // b.any
    8000:	2a1603e0 	mov	w0, w22
    8004:	a94153f3 	ldp	x19, x20, [sp, #16]
    8008:	a9425bf5 	ldp	x21, x22, [sp, #32]
    800c:	a8c57bfd 	ldp	x29, x30, [sp], #80
    8010:	d65f03c0 	ret
    8014:	f0000083 	adrp	x3, 1b000 <putsgent@@Base+0x12670>
    8018:	528000a2 	mov	w2, #0x5                   	// #5
    801c:	b0000001 	adrp	x1, 9000 <putsgent@@Base+0x670>
    8020:	d2800000 	mov	x0, #0x0                   	// #0
    8024:	f947d063 	ldr	x3, [x3, #4000]
    8028:	912fc021 	add	x1, x1, #0xbf0
    802c:	f9001bf7 	str	x23, [sp, #48]
    8030:	f9400077 	ldr	x23, [x3]
    8034:	97ffece3 	bl	33c0 <dcgettext@plt>
    8038:	f9400664 	ldr	x4, [x19, #8]
    803c:	aa0003e2 	mov	x2, x0
    8040:	aa1503e3 	mov	x3, x21
    8044:	aa1703e0 	mov	x0, x23
    8048:	52800021 	mov	w1, #0x1                   	// #1
    804c:	97ffec7d 	bl	3240 <__fprintf_chk@plt>
    8050:	f9401bf7 	ldr	x23, [sp, #48]
    8054:	17ffffe5 	b	7fe8 <ferror@plt+0x4af8>
    8058:	97fffea2 	bl	7ae0 <ferror@plt+0x45f0>
    805c:	17ffffd5 	b	7fb0 <ferror@plt+0x4ac0>
    8060:	f9001bf7 	str	x23, [sp, #48]
    8064:	97ffec3f 	bl	3160 <__stack_chk_fail@plt>
    8068:	a9bb7bfd 	stp	x29, x30, [sp, #-80]!
    806c:	900000a3 	adrp	x3, 1c000 <putsgent@@Base+0x13670>
    8070:	910003fd 	mov	x29, sp
    8074:	a90153f3 	stp	x19, x20, [sp, #16]
    8078:	f0000094 	adrp	x20, 1b000 <putsgent@@Base+0x12670>
    807c:	aa0103f3 	mov	x19, x1
    8080:	f947e682 	ldr	x2, [x20, #4040]
    8084:	a9025bf5 	stp	x21, x22, [sp, #32]
    8088:	aa0003f6 	mov	x22, x0
    808c:	395f4460 	ldrb	w0, [x3, #2001]
    8090:	f9400041 	ldr	x1, [x2]
    8094:	f90027e1 	str	x1, [sp, #72]
    8098:	d2800001 	mov	x1, #0x0                   	// #0
    809c:	340002c0 	cbz	w0, 80f4 <ferror@plt+0x4c04>
    80a0:	aa1603e0 	mov	x0, x22
    80a4:	97fffdf7 	bl	7880 <ferror@plt+0x4390>
    80a8:	aa0003f5 	mov	x21, x0
    80ac:	b40000e0 	cbz	x0, 80c8 <ferror@plt+0x4bd8>
    80b0:	f9400400 	ldr	x0, [x0, #8]
    80b4:	b40000a0 	cbz	x0, 80c8 <ferror@plt+0x4bd8>
    80b8:	910103e1 	add	x1, sp, #0x40
    80bc:	9400005f 	bl	8238 <ferror@plt+0x4d48>
    80c0:	340001e0 	cbz	w0, 80fc <ferror@plt+0x4c0c>
    80c4:	f94023f3 	ldr	x19, [sp, #64]
    80c8:	f947e694 	ldr	x20, [x20, #4040]
    80cc:	f94027e0 	ldr	x0, [sp, #72]
    80d0:	f9400281 	ldr	x1, [x20]
    80d4:	eb010000 	subs	x0, x0, x1
    80d8:	d2800001 	mov	x1, #0x0                   	// #0
    80dc:	54000321 	b.ne	8140 <ferror@plt+0x4c50>  // b.any
    80e0:	aa1303e0 	mov	x0, x19
    80e4:	a94153f3 	ldp	x19, x20, [sp, #16]
    80e8:	a9425bf5 	ldp	x21, x22, [sp, #32]
    80ec:	a8c57bfd 	ldp	x29, x30, [sp], #80
    80f0:	d65f03c0 	ret
    80f4:	97fffe7b 	bl	7ae0 <ferror@plt+0x45f0>
    80f8:	17ffffea 	b	80a0 <ferror@plt+0x4bb0>
    80fc:	f0000083 	adrp	x3, 1b000 <putsgent@@Base+0x12670>
    8100:	528000a2 	mov	w2, #0x5                   	// #5
    8104:	b0000001 	adrp	x1, 9000 <putsgent@@Base+0x670>
    8108:	d2800000 	mov	x0, #0x0                   	// #0
    810c:	f947d063 	ldr	x3, [x3, #4000]
    8110:	912fc021 	add	x1, x1, #0xbf0
    8114:	f9001bf7 	str	x23, [sp, #48]
    8118:	f9400077 	ldr	x23, [x3]
    811c:	97ffeca9 	bl	33c0 <dcgettext@plt>
    8120:	f94006a4 	ldr	x4, [x21, #8]
    8124:	aa0003e2 	mov	x2, x0
    8128:	aa1603e3 	mov	x3, x22
    812c:	aa1703e0 	mov	x0, x23
    8130:	52800021 	mov	w1, #0x1                   	// #1
    8134:	97ffec43 	bl	3240 <__fprintf_chk@plt>
    8138:	f9401bf7 	ldr	x23, [sp, #48]
    813c:	17ffffe3 	b	80c8 <ferror@plt+0x4bd8>
    8140:	f9001bf7 	str	x23, [sp, #48]
    8144:	97ffec07 	bl	3160 <__stack_chk_fail@plt>
    8148:	a9bb7bfd 	stp	x29, x30, [sp, #-80]!
    814c:	900000a3 	adrp	x3, 1c000 <putsgent@@Base+0x13670>
    8150:	910003fd 	mov	x29, sp
    8154:	a90153f3 	stp	x19, x20, [sp, #16]
    8158:	f0000094 	adrp	x20, 1b000 <putsgent@@Base+0x12670>
    815c:	aa0103f3 	mov	x19, x1
    8160:	f947e682 	ldr	x2, [x20, #4040]
    8164:	a9025bf5 	stp	x21, x22, [sp, #32]
    8168:	aa0003f6 	mov	x22, x0
    816c:	395f4460 	ldrb	w0, [x3, #2001]
    8170:	f9400041 	ldr	x1, [x2]
    8174:	f90027e1 	str	x1, [sp, #72]
    8178:	d2800001 	mov	x1, #0x0                   	// #0
    817c:	340002c0 	cbz	w0, 81d4 <ferror@plt+0x4ce4>
    8180:	aa1603e0 	mov	x0, x22
    8184:	97fffdbf 	bl	7880 <ferror@plt+0x4390>
    8188:	aa0003f5 	mov	x21, x0
    818c:	b40000e0 	cbz	x0, 81a8 <ferror@plt+0x4cb8>
    8190:	f9400400 	ldr	x0, [x0, #8]
    8194:	b40000a0 	cbz	x0, 81a8 <ferror@plt+0x4cb8>
    8198:	910103e1 	add	x1, sp, #0x40
    819c:	94000051 	bl	82e0 <ferror@plt+0x4df0>
    81a0:	340001e0 	cbz	w0, 81dc <ferror@plt+0x4cec>
    81a4:	f94023f3 	ldr	x19, [sp, #64]
    81a8:	f947e694 	ldr	x20, [x20, #4040]
    81ac:	f94027e0 	ldr	x0, [sp, #72]
    81b0:	f9400281 	ldr	x1, [x20]
    81b4:	eb010000 	subs	x0, x0, x1
    81b8:	d2800001 	mov	x1, #0x0                   	// #0
    81bc:	54000321 	b.ne	8220 <ferror@plt+0x4d30>  // b.any
    81c0:	aa1303e0 	mov	x0, x19
    81c4:	a94153f3 	ldp	x19, x20, [sp, #16]
    81c8:	a9425bf5 	ldp	x21, x22, [sp, #32]
    81cc:	a8c57bfd 	ldp	x29, x30, [sp], #80
    81d0:	d65f03c0 	ret
    81d4:	97fffe43 	bl	7ae0 <ferror@plt+0x45f0>
    81d8:	17ffffea 	b	8180 <ferror@plt+0x4c90>
    81dc:	f0000083 	adrp	x3, 1b000 <putsgent@@Base+0x12670>
    81e0:	528000a2 	mov	w2, #0x5                   	// #5
    81e4:	b0000001 	adrp	x1, 9000 <putsgent@@Base+0x670>
    81e8:	d2800000 	mov	x0, #0x0                   	// #0
    81ec:	f947d063 	ldr	x3, [x3, #4000]
    81f0:	912fc021 	add	x1, x1, #0xbf0
    81f4:	f9001bf7 	str	x23, [sp, #48]
    81f8:	f9400077 	ldr	x23, [x3]
    81fc:	97ffec71 	bl	33c0 <dcgettext@plt>
    8200:	f94006a4 	ldr	x4, [x21, #8]
    8204:	aa0003e2 	mov	x2, x0
    8208:	aa1603e3 	mov	x3, x22
    820c:	aa1703e0 	mov	x0, x23
    8210:	52800021 	mov	w1, #0x1                   	// #1
    8214:	97ffec0b 	bl	3240 <__fprintf_chk@plt>
    8218:	f9401bf7 	ldr	x23, [sp, #48]
    821c:	17ffffe3 	b	81a8 <ferror@plt+0x4cb8>
    8220:	f9001bf7 	str	x23, [sp, #48]
    8224:	97ffebcf 	bl	3160 <__stack_chk_fail@plt>
    8228:	900000a1 	adrp	x1, 1c000 <putsgent@@Base+0x13670>
    822c:	f902d420 	str	x0, [x1, #1448]
    8230:	d65f03c0 	ret
    8234:	d503201f 	nop
    8238:	a9bc7bfd 	stp	x29, x30, [sp, #-64]!
    823c:	910003fd 	mov	x29, sp
    8240:	a90153f3 	stp	x19, x20, [sp, #16]
    8244:	f0000093 	adrp	x19, 1b000 <putsgent@@Base+0x12670>
    8248:	aa0003f4 	mov	x20, x0
    824c:	f947e660 	ldr	x0, [x19, #4040]
    8250:	a9025bf5 	stp	x21, x22, [sp, #32]
    8254:	aa0103f6 	mov	x22, x1
    8258:	f9400001 	ldr	x1, [x0]
    825c:	f9001fe1 	str	x1, [sp, #56]
    8260:	d2800001 	mov	x1, #0x0                   	// #0
    8264:	97ffec77 	bl	3440 <__errno_location@plt>
    8268:	aa0003f5 	mov	x21, x0
    826c:	52800002 	mov	w2, #0x0                   	// #0
    8270:	aa1403e0 	mov	x0, x20
    8274:	9100c3e1 	add	x1, sp, #0x30
    8278:	b90002bf 	str	wzr, [x21]
    827c:	97ffebfd 	bl	3270 <strtol@plt>
    8280:	aa0003e2 	mov	x2, x0
    8284:	39400283 	ldrb	w3, [x20]
    8288:	52800000 	mov	w0, #0x0                   	// #0
    828c:	34000123 	cbz	w3, 82b0 <ferror@plt+0x4dc0>
    8290:	f9401be1 	ldr	x1, [sp, #48]
    8294:	39400021 	ldrb	w1, [x1]
    8298:	350000c1 	cbnz	w1, 82b0 <ferror@plt+0x4dc0>
    829c:	b94002a1 	ldr	w1, [x21]
    82a0:	7100883f 	cmp	w1, #0x22
    82a4:	54000060 	b.eq	82b0 <ferror@plt+0x4dc0>  // b.none
    82a8:	52800020 	mov	w0, #0x1                   	// #1
    82ac:	f90002c2 	str	x2, [x22]
    82b0:	f947e673 	ldr	x19, [x19, #4040]
    82b4:	f9401fe1 	ldr	x1, [sp, #56]
    82b8:	f9400262 	ldr	x2, [x19]
    82bc:	eb020021 	subs	x1, x1, x2
    82c0:	d2800002 	mov	x2, #0x0                   	// #0
    82c4:	540000a1 	b.ne	82d8 <ferror@plt+0x4de8>  // b.any
    82c8:	a94153f3 	ldp	x19, x20, [sp, #16]
    82cc:	a9425bf5 	ldp	x21, x22, [sp, #32]
    82d0:	a8c47bfd 	ldp	x29, x30, [sp], #64
    82d4:	d65f03c0 	ret
    82d8:	97ffeba2 	bl	3160 <__stack_chk_fail@plt>
    82dc:	d503201f 	nop
    82e0:	a9bc7bfd 	stp	x29, x30, [sp, #-64]!
    82e4:	910003fd 	mov	x29, sp
    82e8:	a90153f3 	stp	x19, x20, [sp, #16]
    82ec:	f0000093 	adrp	x19, 1b000 <putsgent@@Base+0x12670>
    82f0:	aa0003f4 	mov	x20, x0
    82f4:	f947e660 	ldr	x0, [x19, #4040]
    82f8:	a9025bf5 	stp	x21, x22, [sp, #32]
    82fc:	aa0103f6 	mov	x22, x1
    8300:	f9400001 	ldr	x1, [x0]
    8304:	f9001fe1 	str	x1, [sp, #56]
    8308:	d2800001 	mov	x1, #0x0                   	// #0
    830c:	97ffec4d 	bl	3440 <__errno_location@plt>
    8310:	aa0003f5 	mov	x21, x0
    8314:	52800002 	mov	w2, #0x0                   	// #0
    8318:	aa1403e0 	mov	x0, x20
    831c:	9100c3e1 	add	x1, sp, #0x30
    8320:	b90002bf 	str	wzr, [x21]
    8324:	97ffeaab 	bl	2dd0 <strtoul@plt>
    8328:	aa0003e2 	mov	x2, x0
    832c:	39400283 	ldrb	w3, [x20]
    8330:	52800000 	mov	w0, #0x0                   	// #0
    8334:	34000123 	cbz	w3, 8358 <ferror@plt+0x4e68>
    8338:	f9401be1 	ldr	x1, [sp, #48]
    833c:	39400021 	ldrb	w1, [x1]
    8340:	350000c1 	cbnz	w1, 8358 <ferror@plt+0x4e68>
    8344:	b94002a1 	ldr	w1, [x21]
    8348:	7100883f 	cmp	w1, #0x22
    834c:	54000060 	b.eq	8358 <ferror@plt+0x4e68>  // b.none
    8350:	52800020 	mov	w0, #0x1                   	// #1
    8354:	f90002c2 	str	x2, [x22]
    8358:	f947e673 	ldr	x19, [x19, #4040]
    835c:	f9401fe1 	ldr	x1, [sp, #56]
    8360:	f9400262 	ldr	x2, [x19]
    8364:	eb020021 	subs	x1, x1, x2
    8368:	d2800002 	mov	x2, #0x0                   	// #0
    836c:	540000a1 	b.ne	8380 <ferror@plt+0x4e90>  // b.any
    8370:	a94153f3 	ldp	x19, x20, [sp, #16]
    8374:	a9425bf5 	ldp	x21, x22, [sp, #32]
    8378:	a8c47bfd 	ldp	x29, x30, [sp], #64
    837c:	d65f03c0 	ret
    8380:	97ffeb78 	bl	3160 <__stack_chk_fail@plt>
    8384:	d503201f 	nop
    8388:	a9be7bfd 	stp	x29, x30, [sp, #-32]!
    838c:	910003fd 	mov	x29, sp
    8390:	a90153f3 	stp	x19, x20, [sp, #16]
    8394:	aa0003f4 	mov	x20, x0
    8398:	f9400000 	ldr	x0, [x0]
    839c:	97ffebc5 	bl	32b0 <free@plt>
    83a0:	f9400693 	ldr	x19, [x20, #8]
    83a4:	b4000133 	cbz	x19, 83c8 <ferror@plt+0x4ed8>
    83a8:	aa1303e0 	mov	x0, x19
    83ac:	97ffea8d 	bl	2de0 <strlen@plt>
    83b0:	52800001 	mov	w1, #0x0                   	// #0
    83b4:	aa0003e2 	mov	x2, x0
    83b8:	aa1303e0 	mov	x0, x19
    83bc:	97ffeb39 	bl	30a0 <memset@plt>
    83c0:	f9400680 	ldr	x0, [x20, #8]
    83c4:	97ffebbb 	bl	32b0 <free@plt>
    83c8:	f9400e81 	ldr	x1, [x20, #24]
    83cc:	b4000181 	cbz	x1, 83fc <ferror@plt+0x4f0c>
    83d0:	f9400020 	ldr	x0, [x1]
    83d4:	b4000100 	cbz	x0, 83f4 <ferror@plt+0x4f04>
    83d8:	d2800113 	mov	x19, #0x8                   	// #8
    83dc:	d503201f 	nop
    83e0:	97ffebb4 	bl	32b0 <free@plt>
    83e4:	f9400e81 	ldr	x1, [x20, #24]
    83e8:	f8736820 	ldr	x0, [x1, x19]
    83ec:	91002273 	add	x19, x19, #0x8
    83f0:	b5ffff80 	cbnz	x0, 83e0 <ferror@plt+0x4ef0>
    83f4:	aa0103e0 	mov	x0, x1
    83f8:	97ffebae 	bl	32b0 <free@plt>
    83fc:	aa1403e0 	mov	x0, x20
    8400:	a94153f3 	ldp	x19, x20, [sp, #16]
    8404:	a8c27bfd 	ldp	x29, x30, [sp], #32
    8408:	17ffebaa 	b	32b0 <free@plt>
    840c:	d503201f 	nop
    8410:	a9bc7bfd 	stp	x29, x30, [sp, #-64]!
    8414:	d2800021 	mov	x1, #0x1                   	// #1
    8418:	910003fd 	mov	x29, sp
    841c:	a90153f3 	stp	x19, x20, [sp, #16]
    8420:	aa0003f3 	mov	x19, x0
    8424:	d2800400 	mov	x0, #0x20                  	// #32
    8428:	f9001bf7 	str	x23, [sp, #48]
    842c:	97ffeb35 	bl	3100 <calloc@plt>
    8430:	aa0003f7 	mov	x23, x0
    8434:	b40004e0 	cbz	x0, 84d0 <ferror@plt+0x4fe0>
    8438:	b9401261 	ldr	w1, [x19, #16]
    843c:	f9400260 	ldr	x0, [x19]
    8440:	b90012e1 	str	w1, [x23, #16]
    8444:	97ffeb3f 	bl	3140 <strdup@plt>
    8448:	f90002e0 	str	x0, [x23]
    844c:	b4000600 	cbz	x0, 850c <ferror@plt+0x501c>
    8450:	f9400660 	ldr	x0, [x19, #8]
    8454:	97ffeb3b 	bl	3140 <strdup@plt>
    8458:	f90006e0 	str	x0, [x23, #8]
    845c:	b4000580 	cbz	x0, 850c <ferror@plt+0x501c>
    8460:	a9025bf5 	stp	x21, x22, [sp, #32]
    8464:	d2800001 	mov	x1, #0x0                   	// #0
    8468:	f9400e75 	ldr	x21, [x19, #24]
    846c:	f94002b4 	ldr	x20, [x21]
    8470:	b40003b4 	cbz	x20, 84e4 <ferror@plt+0x4ff4>
    8474:	d503201f 	nop
    8478:	2a0103e2 	mov	w2, w1
    847c:	91000421 	add	x1, x1, #0x1
    8480:	f8617aa0 	ldr	x0, [x21, x1, lsl #3]
    8484:	b5ffffa0 	cbnz	x0, 8478 <ferror@plt+0x4f88>
    8488:	11000840 	add	w0, w2, #0x2
    848c:	937d7c00 	sbfiz	x0, x0, #3, #32
    8490:	97ffeadc 	bl	3000 <malloc@plt>
    8494:	f9000ee0 	str	x0, [x23, #24]
    8498:	aa0003f6 	mov	x22, x0
    849c:	b40002e0 	cbz	x0, 84f8 <ferror@plt+0x5008>
    84a0:	d2800013 	mov	x19, #0x0                   	// #0
    84a4:	d503201f 	nop
    84a8:	aa1403e0 	mov	x0, x20
    84ac:	97ffeb25 	bl	3140 <strdup@plt>
    84b0:	f8336ac0 	str	x0, [x22, x19]
    84b4:	91002273 	add	x19, x19, #0x8
    84b8:	b4000200 	cbz	x0, 84f8 <ferror@plt+0x5008>
    84bc:	f8736ab4 	ldr	x20, [x21, x19]
    84c0:	b5ffff54 	cbnz	x20, 84a8 <ferror@plt+0x4fb8>
    84c4:	8b1302d3 	add	x19, x22, x19
    84c8:	a9425bf5 	ldp	x21, x22, [sp, #32]
    84cc:	f900027f 	str	xzr, [x19]
    84d0:	aa1703e0 	mov	x0, x23
    84d4:	a94153f3 	ldp	x19, x20, [sp, #16]
    84d8:	f9401bf7 	ldr	x23, [sp, #48]
    84dc:	a8c47bfd 	ldp	x29, x30, [sp], #64
    84e0:	d65f03c0 	ret
    84e4:	d2800100 	mov	x0, #0x8                   	// #8
    84e8:	97ffeac6 	bl	3000 <malloc@plt>
    84ec:	f9000ee0 	str	x0, [x23, #24]
    84f0:	aa0003f3 	mov	x19, x0
    84f4:	b5fffea0 	cbnz	x0, 84c8 <ferror@plt+0x4fd8>
    84f8:	aa1703e0 	mov	x0, x23
    84fc:	d2800017 	mov	x23, #0x0                   	// #0
    8500:	97ffffa2 	bl	8388 <ferror@plt+0x4e98>
    8504:	a9425bf5 	ldp	x21, x22, [sp, #32]
    8508:	17fffff2 	b	84d0 <ferror@plt+0x4fe0>
    850c:	aa1703e0 	mov	x0, x23
    8510:	d2800017 	mov	x23, #0x0                   	// #0
    8514:	97ffff9d 	bl	8388 <ferror@plt+0x4e98>
    8518:	17ffffee 	b	84d0 <ferror@plt+0x4fe0>
    851c:	d503201f 	nop
    8520:	a9bb7bfd 	stp	x29, x30, [sp, #-80]!
    8524:	910003fd 	mov	x29, sp
    8528:	a90153f3 	stp	x19, x20, [sp, #16]
    852c:	aa0003f3 	mov	x19, x0
    8530:	f9400034 	ldr	x20, [x1]
    8534:	f90023f9 	str	x25, [sp, #64]
    8538:	f9400059 	ldr	x25, [x2]
    853c:	a90363f7 	stp	x23, x24, [sp, #48]
    8540:	aa0103f7 	mov	x23, x1
    8544:	aa0203f8 	mov	x24, x2
    8548:	a9025bf5 	stp	x21, x22, [sp, #32]
    854c:	d503201f 	nop
    8550:	91000736 	add	x22, x25, #0x1
    8554:	d37df2d5 	lsl	x21, x22, #3
    8558:	aa1503e1 	mov	x1, x21
    855c:	aa1403e0 	mov	x0, x20
    8560:	b4000273 	cbz	x19, 85ac <ferror@plt+0x50bc>
    8564:	39400262 	ldrb	w2, [x19]
    8568:	34000222 	cbz	w2, 85ac <ferror@plt+0x50bc>
    856c:	97ffeaed 	bl	3120 <realloc@plt>
    8570:	aa0003f4 	mov	x20, x0
    8574:	b4000340 	cbz	x0, 85dc <ferror@plt+0x50ec>
    8578:	8b150015 	add	x21, x0, x21
    857c:	52800581 	mov	w1, #0x2c                  	// #44
    8580:	aa1303e0 	mov	x0, x19
    8584:	f81f82b3 	stur	x19, [x21, #-8]
    8588:	f90002f4 	str	x20, [x23]
    858c:	f9000316 	str	x22, [x24]
    8590:	97ffeb50 	bl	32d0 <strchr@plt>
    8594:	aa0003f3 	mov	x19, x0
    8598:	b4000060 	cbz	x0, 85a4 <ferror@plt+0x50b4>
    859c:	3800167f 	strb	wzr, [x19], #1
    85a0:	f94002f4 	ldr	x20, [x23]
    85a4:	aa1603f9 	mov	x25, x22
    85a8:	17ffffea 	b	8550 <ferror@plt+0x5060>
    85ac:	aa1503e1 	mov	x1, x21
    85b0:	aa1403e0 	mov	x0, x20
    85b4:	97ffeadb 	bl	3120 <realloc@plt>
    85b8:	b4000060 	cbz	x0, 85c4 <ferror@plt+0x50d4>
    85bc:	f839781f 	str	xzr, [x0, x25, lsl #3]
    85c0:	f90002e0 	str	x0, [x23]
    85c4:	a94153f3 	ldp	x19, x20, [sp, #16]
    85c8:	a9425bf5 	ldp	x21, x22, [sp, #32]
    85cc:	a94363f7 	ldp	x23, x24, [sp, #48]
    85d0:	f94023f9 	ldr	x25, [sp, #64]
    85d4:	a8c57bfd 	ldp	x29, x30, [sp], #80
    85d8:	d65f03c0 	ret
    85dc:	f94002f4 	ldr	x20, [x23]
    85e0:	17ffffde 	b	8558 <ferror@plt+0x5068>
    85e4:	d503201f 	nop

00000000000085e8 <setsgent@@Base>:
    85e8:	a9be7bfd 	stp	x29, x30, [sp, #-32]!
    85ec:	910003fd 	mov	x29, sp
    85f0:	f9000bf3 	str	x19, [sp, #16]
    85f4:	900000b3 	adrp	x19, 1c000 <putsgent@@Base+0x13670>
    85f8:	f943ee60 	ldr	x0, [x19, #2008]
    85fc:	b4000080 	cbz	x0, 860c <setsgent@@Base+0x24>
    8600:	f9400bf3 	ldr	x19, [sp, #16]
    8604:	a8c27bfd 	ldp	x29, x30, [sp], #32
    8608:	17ffeaca 	b	3130 <rewind@plt>
    860c:	b0000001 	adrp	x1, 9000 <putsgent@@Base+0x670>
    8610:	b0000000 	adrp	x0, 9000 <putsgent@@Base+0x670>
    8614:	911ae021 	add	x1, x1, #0x6b8
    8618:	913f4000 	add	x0, x0, #0xfd0
    861c:	97ffea6d 	bl	2fd0 <fopen@plt>
    8620:	f903ee60 	str	x0, [x19, #2008]
    8624:	f9400bf3 	ldr	x19, [sp, #16]
    8628:	a8c27bfd 	ldp	x29, x30, [sp], #32
    862c:	d65f03c0 	ret

0000000000008630 <endsgent@@Base>:
    8630:	a9be7bfd 	stp	x29, x30, [sp, #-32]!
    8634:	910003fd 	mov	x29, sp
    8638:	f9000bf3 	str	x19, [sp, #16]
    863c:	900000b3 	adrp	x19, 1c000 <putsgent@@Base+0x13670>
    8640:	f943ee60 	ldr	x0, [x19, #2008]
    8644:	b4000040 	cbz	x0, 864c <endsgent@@Base+0x1c>
    8648:	97ffea5a 	bl	2fb0 <fclose@plt>
    864c:	f903ee7f 	str	xzr, [x19, #2008]
    8650:	f9400bf3 	ldr	x19, [sp, #16]
    8654:	a8c27bfd 	ldp	x29, x30, [sp], #32
    8658:	d65f03c0 	ret
    865c:	d503201f 	nop

0000000000008660 <sgetsgent@@Base>:
    8660:	a9b87bfd 	stp	x29, x30, [sp, #-128]!
    8664:	910003fd 	mov	x29, sp
    8668:	a9025bf5 	stp	x21, x22, [sp, #32]
    866c:	f0000096 	adrp	x22, 1b000 <putsgent@@Base+0x12670>
    8670:	900000b5 	adrp	x21, 1c000 <putsgent@@Base+0x13670>
    8674:	f947e6c1 	ldr	x1, [x22, #4040]
    8678:	a90153f3 	stp	x19, x20, [sp, #16]
    867c:	f9400022 	ldr	x2, [x1]
    8680:	f9003fe2 	str	x2, [sp, #120]
    8684:	d2800002 	mov	x2, #0x0                   	// #0
    8688:	f90023f9 	str	x25, [sp, #64]
    868c:	911f62b9 	add	x25, x21, #0x7d8
    8690:	a90363f7 	stp	x23, x24, [sp, #48]
    8694:	aa0003f7 	mov	x23, x0
    8698:	97ffe9d2 	bl	2de0 <strlen@plt>
    869c:	91000418 	add	x24, x0, #0x1
    86a0:	a9428733 	ldp	x19, x1, [x25, #40]
    86a4:	aa0003f4 	mov	x20, x0
    86a8:	eb18003f 	cmp	x1, x24
    86ac:	540000e2 	b.cs	86c8 <sgetsgent@@Base+0x68>  // b.hs, b.nlast
    86b0:	aa1303e0 	mov	x0, x19
    86b4:	aa1803e1 	mov	x1, x24
    86b8:	97ffea9a 	bl	3120 <realloc@plt>
    86bc:	aa0003f3 	mov	x19, x0
    86c0:	b4000340 	cbz	x0, 8728 <sgetsgent@@Base+0xc8>
    86c4:	a902e320 	stp	x0, x24, [x25, #40]
    86c8:	aa1803e2 	mov	x2, x24
    86cc:	aa1703e1 	mov	x1, x23
    86d0:	aa1303e0 	mov	x0, x19
    86d4:	97ffeb47 	bl	33f0 <strncpy@plt>
    86d8:	38346a7f 	strb	wzr, [x19, x20]
    86dc:	aa1303e0 	mov	x0, x19
    86e0:	52800141 	mov	w1, #0xa                   	// #10
    86e4:	97ffeaa7 	bl	3180 <strrchr@plt>
    86e8:	b4000040 	cbz	x0, 86f0 <sgetsgent@@Base+0x90>
    86ec:	3900001f 	strb	wzr, [x0]
    86f0:	910163f7 	add	x23, sp, #0x58
    86f4:	d2800034 	mov	x20, #0x1                   	// #1
    86f8:	8b140ee2 	add	x2, x23, x20, lsl #3
    86fc:	aa1303e0 	mov	x0, x19
    8700:	52800741 	mov	w1, #0x3a                  	// #58
    8704:	f81f8053 	stur	x19, [x2, #-8]
    8708:	97ffeaf2 	bl	32d0 <strchr@plt>
    870c:	aa0003f3 	mov	x19, x0
    8710:	2a1403e1 	mov	w1, w20
    8714:	b40000e0 	cbz	x0, 8730 <sgetsgent@@Base+0xd0>
    8718:	3800167f 	strb	wzr, [x19], #1
    871c:	91000694 	add	x20, x20, #0x1
    8720:	71000c3f 	cmp	w1, #0x3
    8724:	54fffead 	b.le	86f8 <sgetsgent@@Base+0x98>
    8728:	d2800000 	mov	x0, #0x0                   	// #0
    872c:	1400001c 	b	879c <sgetsgent@@Base+0x13c>
    8730:	7100129f 	cmp	w20, #0x4
    8734:	54ffffa1 	b.ne	8728 <sgetsgent@@Base+0xc8>  // b.any
    8738:	911f62b3 	add	x19, x21, #0x7d8
    873c:	f94002e1 	ldr	x1, [x23]
    8740:	f9401e60 	ldr	x0, [x19, #56]
    8744:	f9000661 	str	x1, [x19, #8]
    8748:	f94006e1 	ldr	x1, [x23, #8]
    874c:	f9000a61 	str	x1, [x19, #16]
    8750:	b5000480 	cbnz	x0, 87e0 <sgetsgent@@Base+0x180>
    8754:	911f62b3 	add	x19, x21, #0x7d8
    8758:	f9402660 	ldr	x0, [x19, #72]
    875c:	b5000380 	cbnz	x0, 87cc <sgetsgent@@Base+0x16c>
    8760:	f94037e0 	ldr	x0, [sp, #104]
    8764:	911f62b5 	add	x21, x21, #0x7d8
    8768:	9100e2a2 	add	x2, x21, #0x38
    876c:	910102a1 	add	x1, x21, #0x40
    8770:	910022b4 	add	x20, x21, #0x8
    8774:	97ffff6b 	bl	8520 <ferror@plt+0x5030>
    8778:	aa0003e3 	mov	x3, x0
    877c:	f9403be0 	ldr	x0, [sp, #112]
    8780:	910142a1 	add	x1, x21, #0x50
    8784:	910122a2 	add	x2, x21, #0x48
    8788:	f9000a83 	str	x3, [x20, #16]
    878c:	97ffff65 	bl	8520 <ferror@plt+0x5030>
    8790:	aa0003e1 	mov	x1, x0
    8794:	aa1403e0 	mov	x0, x20
    8798:	f9000e81 	str	x1, [x20, #24]
    879c:	f947e6d6 	ldr	x22, [x22, #4040]
    87a0:	f9403fe1 	ldr	x1, [sp, #120]
    87a4:	f94002c2 	ldr	x2, [x22]
    87a8:	eb020021 	subs	x1, x1, x2
    87ac:	d2800002 	mov	x2, #0x0                   	// #0
    87b0:	54000221 	b.ne	87f4 <sgetsgent@@Base+0x194>  // b.any
    87b4:	a94153f3 	ldp	x19, x20, [sp, #16]
    87b8:	a9425bf5 	ldp	x21, x22, [sp, #32]
    87bc:	a94363f7 	ldp	x23, x24, [sp, #48]
    87c0:	f94023f9 	ldr	x25, [sp, #64]
    87c4:	a8c87bfd 	ldp	x29, x30, [sp], #128
    87c8:	d65f03c0 	ret
    87cc:	f9402a60 	ldr	x0, [x19, #80]
    87d0:	f900267f 	str	xzr, [x19, #72]
    87d4:	97ffeab7 	bl	32b0 <free@plt>
    87d8:	f9002a7f 	str	xzr, [x19, #80]
    87dc:	17ffffe1 	b	8760 <sgetsgent@@Base+0x100>
    87e0:	f9402260 	ldr	x0, [x19, #64]
    87e4:	f9001e7f 	str	xzr, [x19, #56]
    87e8:	97ffeab2 	bl	32b0 <free@plt>
    87ec:	f900227f 	str	xzr, [x19, #64]
    87f0:	17ffffd9 	b	8754 <sgetsgent@@Base+0xf4>
    87f4:	97ffea5b 	bl	3160 <__stack_chk_fail@plt>

00000000000087f8 <fgetsgent@@Base>:
    87f8:	a9bc7bfd 	stp	x29, x30, [sp, #-64]!
    87fc:	910003fd 	mov	x29, sp
    8800:	a90153f3 	stp	x19, x20, [sp, #16]
    8804:	900000b3 	adrp	x19, 1c000 <putsgent@@Base+0x13670>
    8808:	911f6274 	add	x20, x19, #0x7d8
    880c:	f9001bf7 	str	x23, [sp, #48]
    8810:	aa0003f7 	mov	x23, x0
    8814:	f9402e80 	ldr	x0, [x20, #88]
    8818:	b4000660 	cbz	x0, 88e4 <fgetsgent@@Base+0xec>
    881c:	b4000197 	cbz	x23, 884c <fgetsgent@@Base+0x54>
    8820:	911f6273 	add	x19, x19, #0x7d8
    8824:	aa1703e2 	mov	x2, x23
    8828:	a9025bf5 	stp	x21, x22, [sp, #32]
    882c:	aa1303f6 	mov	x22, x19
    8830:	b9405a61 	ldr	w1, [x19, #88]
    8834:	f9403260 	ldr	x0, [x19, #96]
    8838:	94000100 	bl	8c38 <putsgent@@Base+0x2a8>
    883c:	f9403274 	ldr	x20, [x19, #96]
    8840:	eb00029f 	cmp	x20, x0
    8844:	540003a0 	b.eq	88b8 <fgetsgent@@Base+0xc0>  // b.none
    8848:	a9425bf5 	ldp	x21, x22, [sp, #32]
    884c:	d2800000 	mov	x0, #0x0                   	// #0
    8850:	a94153f3 	ldp	x19, x20, [sp, #16]
    8854:	f9401bf7 	ldr	x23, [sp, #48]
    8858:	a8c47bfd 	ldp	x29, x30, [sp], #64
    885c:	d65f03c0 	ret
    8860:	aa1703e0 	mov	x0, x23
    8864:	97ffea67 	bl	3200 <feof@plt>
    8868:	2a0003e1 	mov	w1, w0
    886c:	aa1403e0 	mov	x0, x20
    8870:	35000481 	cbnz	w1, 8900 <fgetsgent@@Base+0x108>
    8874:	f9402ed5 	ldr	x21, [x22, #88]
    8878:	d37ffab5 	lsl	x21, x21, #1
    887c:	aa1503e1 	mov	x1, x21
    8880:	97ffea28 	bl	3120 <realloc@plt>
    8884:	aa0003f4 	mov	x20, x0
    8888:	b4fffe00 	cbz	x0, 8848 <fgetsgent@@Base+0x50>
    888c:	a90582d5 	stp	x21, x0, [x22, #88]
    8890:	97ffe954 	bl	2de0 <strlen@plt>
    8894:	aa1703e2 	mov	x2, x23
    8898:	aa0003f3 	mov	x19, x0
    889c:	4b0002a1 	sub	w1, w21, w0
    88a0:	8b000280 	add	x0, x20, x0
    88a4:	940000e5 	bl	8c38 <putsgent@@Base+0x2a8>
    88a8:	f94032d4 	ldr	x20, [x22, #96]
    88ac:	8b130293 	add	x19, x20, x19
    88b0:	eb13001f 	cmp	x0, x19
    88b4:	54fffca1 	b.ne	8848 <fgetsgent@@Base+0x50>  // b.any
    88b8:	aa1403e0 	mov	x0, x20
    88bc:	52800141 	mov	w1, #0xa                   	// #10
    88c0:	97ffea30 	bl	3180 <strrchr@plt>
    88c4:	b4fffce0 	cbz	x0, 8860 <fgetsgent@@Base+0x68>
    88c8:	3900001f 	strb	wzr, [x0]
    88cc:	aa1403e0 	mov	x0, x20
    88d0:	a94153f3 	ldp	x19, x20, [sp, #16]
    88d4:	a9425bf5 	ldp	x21, x22, [sp, #32]
    88d8:	f9401bf7 	ldr	x23, [sp, #48]
    88dc:	a8c47bfd 	ldp	x29, x30, [sp], #64
    88e0:	17ffff60 	b	8660 <sgetsgent@@Base>
    88e4:	d2840000 	mov	x0, #0x2000                	// #8192
    88e8:	97ffe9c6 	bl	3000 <malloc@plt>
    88ec:	f9003280 	str	x0, [x20, #96]
    88f0:	b4fffae0 	cbz	x0, 884c <fgetsgent@@Base+0x54>
    88f4:	d2840000 	mov	x0, #0x2000                	// #8192
    88f8:	f9002e80 	str	x0, [x20, #88]
    88fc:	17ffffc8 	b	881c <fgetsgent@@Base+0x24>
    8900:	52800141 	mov	w1, #0xa                   	// #10
    8904:	97ffea1f 	bl	3180 <strrchr@plt>
    8908:	b4fffe20 	cbz	x0, 88cc <fgetsgent@@Base+0xd4>
    890c:	17ffffef 	b	88c8 <fgetsgent@@Base+0xd0>

0000000000008910 <getsgent@@Base>:
    8910:	a9be7bfd 	stp	x29, x30, [sp, #-32]!
    8914:	910003fd 	mov	x29, sp
    8918:	f9000bf3 	str	x19, [sp, #16]
    891c:	900000b3 	adrp	x19, 1c000 <putsgent@@Base+0x13670>
    8920:	f943ee60 	ldr	x0, [x19, #2008]
    8924:	b4000080 	cbz	x0, 8934 <getsgent@@Base+0x24>
    8928:	f9400bf3 	ldr	x19, [sp, #16]
    892c:	a8c27bfd 	ldp	x29, x30, [sp], #32
    8930:	17ffffb2 	b	87f8 <fgetsgent@@Base>
    8934:	97ffff2d 	bl	85e8 <setsgent@@Base>
    8938:	f943ee60 	ldr	x0, [x19, #2008]
    893c:	f9400bf3 	ldr	x19, [sp, #16]
    8940:	a8c27bfd 	ldp	x29, x30, [sp], #32
    8944:	17ffffad 	b	87f8 <fgetsgent@@Base>

0000000000008948 <getsgnam@@Base>:
    8948:	a9be7bfd 	stp	x29, x30, [sp, #-32]!
    894c:	910003fd 	mov	x29, sp
    8950:	a90153f3 	stp	x19, x20, [sp, #16]
    8954:	aa0003f4 	mov	x20, x0
    8958:	97ffff24 	bl	85e8 <setsgent@@Base>
    895c:	14000005 	b	8970 <getsgnam@@Base+0x28>
    8960:	f9400261 	ldr	x1, [x19]
    8964:	aa1403e0 	mov	x0, x20
    8968:	97ffea3a 	bl	3250 <strcmp@plt>
    896c:	34000080 	cbz	w0, 897c <getsgnam@@Base+0x34>
    8970:	97ffffe8 	bl	8910 <getsgent@@Base>
    8974:	aa0003f3 	mov	x19, x0
    8978:	b5ffff40 	cbnz	x0, 8960 <getsgnam@@Base+0x18>
    897c:	aa1303e0 	mov	x0, x19
    8980:	a94153f3 	ldp	x19, x20, [sp, #16]
    8984:	a8c27bfd 	ldp	x29, x30, [sp], #32
    8988:	d65f03c0 	ret
    898c:	d503201f 	nop

0000000000008990 <putsgent@@Base>:
    8990:	a9bb7bfd 	stp	x29, x30, [sp, #-80]!
    8994:	f100003f 	cmp	x1, #0x0
    8998:	fa401804 	ccmp	x0, #0x0, #0x4, ne  // ne = any
    899c:	910003fd 	mov	x29, sp
    89a0:	a90153f3 	stp	x19, x20, [sp, #16]
    89a4:	54000c20 	b.eq	8b28 <putsgent@@Base+0x198>  // b.none
    89a8:	aa0003f4 	mov	x20, x0
    89ac:	a9046bf9 	stp	x25, x26, [sp, #64]
    89b0:	f9400019 	ldr	x25, [x0]
    89b4:	a9025bf5 	stp	x21, x22, [sp, #32]
    89b8:	aa0103f6 	mov	x22, x1
    89bc:	aa1903e0 	mov	x0, x25
    89c0:	a90363f7 	stp	x23, x24, [sp, #48]
    89c4:	97ffe907 	bl	2de0 <strlen@plt>
    89c8:	f9400698 	ldr	x24, [x20, #8]
    89cc:	aa0003f7 	mov	x23, x0
    89d0:	aa1803e0 	mov	x0, x24
    89d4:	97ffe903 	bl	2de0 <strlen@plt>
    89d8:	f9400a95 	ldr	x21, [x20, #16]
    89dc:	8b0002f3 	add	x19, x23, x0
    89e0:	91002a73 	add	x19, x19, #0xa
    89e4:	b4000115 	cbz	x21, 8a04 <putsgent@@Base+0x74>
    89e8:	aa1503fa 	mov	x26, x21
    89ec:	14000004 	b	89fc <putsgent@@Base+0x6c>
    89f0:	97ffe8fc 	bl	2de0 <strlen@plt>
    89f4:	91000400 	add	x0, x0, #0x1
    89f8:	8b000273 	add	x19, x19, x0
    89fc:	f8408740 	ldr	x0, [x26], #8
    8a00:	b5ffff80 	cbnz	x0, 89f0 <putsgent@@Base+0x60>
    8a04:	f9400e94 	ldr	x20, [x20, #24]
    8a08:	b4000114 	cbz	x20, 8a28 <putsgent@@Base+0x98>
    8a0c:	aa1403fa 	mov	x26, x20
    8a10:	14000004 	b	8a20 <putsgent@@Base+0x90>
    8a14:	97ffe8f3 	bl	2de0 <strlen@plt>
    8a18:	91000400 	add	x0, x0, #0x1
    8a1c:	8b000273 	add	x19, x19, x0
    8a20:	f8408740 	ldr	x0, [x26], #8
    8a24:	b5ffff80 	cbnz	x0, 8a14 <putsgent@@Base+0x84>
    8a28:	aa1303e0 	mov	x0, x19
    8a2c:	97ffe975 	bl	3000 <malloc@plt>
    8a30:	aa0003f3 	mov	x19, x0
    8a34:	b4000740 	cbz	x0, 8b1c <putsgent@@Base+0x18c>
    8a38:	aa1703e2 	mov	x2, x23
    8a3c:	aa1903e1 	mov	x1, x25
    8a40:	97ffe8c8 	bl	2d60 <memcpy@plt>
    8a44:	aa1803e1 	mov	x1, x24
    8a48:	52800758 	mov	w24, #0x3a                  	// #58
    8a4c:	38376a78 	strb	w24, [x19, x23]
    8a50:	8b170260 	add	x0, x19, x23
    8a54:	91000400 	add	x0, x0, #0x1
    8a58:	97ffe93e 	bl	2f50 <stpcpy@plt>
    8a5c:	aa0003e2 	mov	x2, x0
    8a60:	38001418 	strb	w24, [x0], #1
    8a64:	f94002a1 	ldr	x1, [x21]
    8a68:	b4000541 	cbz	x1, 8b10 <putsgent@@Base+0x180>
    8a6c:	910022b5 	add	x21, x21, #0x8
    8a70:	52800597 	mov	w23, #0x2c                  	// #44
    8a74:	14000003 	b	8a80 <putsgent@@Base+0xf0>
    8a78:	39000057 	strb	w23, [x2]
    8a7c:	f84086a1 	ldr	x1, [x21], #8
    8a80:	97ffe934 	bl	2f50 <stpcpy@plt>
    8a84:	f94002a1 	ldr	x1, [x21]
    8a88:	aa0003e2 	mov	x2, x0
    8a8c:	aa0003e3 	mov	x3, x0
    8a90:	91000400 	add	x0, x0, #0x1
    8a94:	b5ffff21 	cbnz	x1, 8a78 <putsgent@@Base+0xe8>
    8a98:	52800741 	mov	w1, #0x3a                  	// #58
    8a9c:	39000061 	strb	w1, [x3]
    8aa0:	f9400281 	ldr	x1, [x20]
    8aa4:	b4000121 	cbz	x1, 8ac8 <putsgent@@Base+0x138>
    8aa8:	91002294 	add	x20, x20, #0x8
    8aac:	52800595 	mov	w21, #0x2c                  	// #44
    8ab0:	14000003 	b	8abc <putsgent@@Base+0x12c>
    8ab4:	38001415 	strb	w21, [x0], #1
    8ab8:	f8408681 	ldr	x1, [x20], #8
    8abc:	97ffe925 	bl	2f50 <stpcpy@plt>
    8ac0:	f9400281 	ldr	x1, [x20]
    8ac4:	b5ffff81 	cbnz	x1, 8ab4 <putsgent@@Base+0x124>
    8ac8:	52800141 	mov	w1, #0xa                   	// #10
    8acc:	79000001 	strh	w1, [x0]
    8ad0:	aa1603e1 	mov	x1, x22
    8ad4:	aa1303e0 	mov	x0, x19
    8ad8:	94000088 	bl	8cf8 <putsgent@@Base+0x368>
    8adc:	2a0003f4 	mov	w20, w0
    8ae0:	3100041f 	cmn	w0, #0x1
    8ae4:	54000040 	b.eq	8aec <putsgent@@Base+0x15c>  // b.none
    8ae8:	52800014 	mov	w20, #0x0                   	// #0
    8aec:	aa1303e0 	mov	x0, x19
    8af0:	97ffe9f0 	bl	32b0 <free@plt>
    8af4:	a9425bf5 	ldp	x21, x22, [sp, #32]
    8af8:	a94363f7 	ldp	x23, x24, [sp, #48]
    8afc:	a9446bf9 	ldp	x25, x26, [sp, #64]
    8b00:	2a1403e0 	mov	w0, w20
    8b04:	a94153f3 	ldp	x19, x20, [sp, #16]
    8b08:	a8c57bfd 	ldp	x29, x30, [sp], #80
    8b0c:	d65f03c0 	ret
    8b10:	aa0003e3 	mov	x3, x0
    8b14:	91000840 	add	x0, x2, #0x2
    8b18:	17ffffe0 	b	8a98 <putsgent@@Base+0x108>
    8b1c:	a9425bf5 	ldp	x21, x22, [sp, #32]
    8b20:	a94363f7 	ldp	x23, x24, [sp, #48]
    8b24:	a9446bf9 	ldp	x25, x26, [sp, #64]
    8b28:	12800014 	mov	w20, #0xffffffff            	// #-1
    8b2c:	17fffff5 	b	8b00 <putsgent@@Base+0x170>
    8b30:	a9be7bfd 	stp	x29, x30, [sp, #-32]!
    8b34:	910003fd 	mov	x29, sp
    8b38:	a90153f3 	stp	x19, x20, [sp, #16]
    8b3c:	aa0003f3 	mov	x19, x0
    8b40:	f9400000 	ldr	x0, [x0]
    8b44:	97ffe9db 	bl	32b0 <free@plt>
    8b48:	f9400674 	ldr	x20, [x19, #8]
    8b4c:	b4000134 	cbz	x20, 8b70 <putsgent@@Base+0x1e0>
    8b50:	aa1403e0 	mov	x0, x20
    8b54:	97ffe8a3 	bl	2de0 <strlen@plt>
    8b58:	52800001 	mov	w1, #0x0                   	// #0
    8b5c:	aa0003e2 	mov	x2, x0
    8b60:	aa1403e0 	mov	x0, x20
    8b64:	97ffe94f 	bl	30a0 <memset@plt>
    8b68:	f9400660 	ldr	x0, [x19, #8]
    8b6c:	97ffe9d1 	bl	32b0 <free@plt>
    8b70:	f9400e60 	ldr	x0, [x19, #24]
    8b74:	97ffe9cf 	bl	32b0 <free@plt>
    8b78:	f9401260 	ldr	x0, [x19, #32]
    8b7c:	97ffe9cd 	bl	32b0 <free@plt>
    8b80:	f9401660 	ldr	x0, [x19, #40]
    8b84:	97ffe9cb 	bl	32b0 <free@plt>
    8b88:	aa1303e0 	mov	x0, x19
    8b8c:	a94153f3 	ldp	x19, x20, [sp, #16]
    8b90:	a8c27bfd 	ldp	x29, x30, [sp], #32
    8b94:	17ffe9c7 	b	32b0 <free@plt>
    8b98:	a9be7bfd 	stp	x29, x30, [sp, #-32]!
    8b9c:	d2800021 	mov	x1, #0x1                   	// #1
    8ba0:	910003fd 	mov	x29, sp
    8ba4:	a90153f3 	stp	x19, x20, [sp, #16]
    8ba8:	aa0003f4 	mov	x20, x0
    8bac:	d2800600 	mov	x0, #0x30                  	// #48
    8bb0:	97ffe954 	bl	3100 <calloc@plt>
    8bb4:	aa0003f3 	mov	x19, x0
    8bb8:	b40002e0 	cbz	x0, 8c14 <putsgent@@Base+0x284>
    8bbc:	f9400280 	ldr	x0, [x20]
    8bc0:	f9400a81 	ldr	x1, [x20, #16]
    8bc4:	f9000a61 	str	x1, [x19, #16]
    8bc8:	97ffe95e 	bl	3140 <strdup@plt>
    8bcc:	f9000260 	str	x0, [x19]
    8bd0:	b40002a0 	cbz	x0, 8c24 <putsgent@@Base+0x294>
    8bd4:	f9400680 	ldr	x0, [x20, #8]
    8bd8:	97ffe95a 	bl	3140 <strdup@plt>
    8bdc:	f9000660 	str	x0, [x19, #8]
    8be0:	b4000220 	cbz	x0, 8c24 <putsgent@@Base+0x294>
    8be4:	f9400e80 	ldr	x0, [x20, #24]
    8be8:	97ffe956 	bl	3140 <strdup@plt>
    8bec:	f9000e60 	str	x0, [x19, #24]
    8bf0:	b40001a0 	cbz	x0, 8c24 <putsgent@@Base+0x294>
    8bf4:	f9401280 	ldr	x0, [x20, #32]
    8bf8:	97ffe952 	bl	3140 <strdup@plt>
    8bfc:	f9001260 	str	x0, [x19, #32]
    8c00:	b4000120 	cbz	x0, 8c24 <putsgent@@Base+0x294>
    8c04:	f9401680 	ldr	x0, [x20, #40]
    8c08:	97ffe94e 	bl	3140 <strdup@plt>
    8c0c:	f9001660 	str	x0, [x19, #40]
    8c10:	b40000a0 	cbz	x0, 8c24 <putsgent@@Base+0x294>
    8c14:	aa1303e0 	mov	x0, x19
    8c18:	a94153f3 	ldp	x19, x20, [sp, #16]
    8c1c:	a8c27bfd 	ldp	x29, x30, [sp], #32
    8c20:	d65f03c0 	ret
    8c24:	aa1303e0 	mov	x0, x19
    8c28:	d2800013 	mov	x19, #0x0                   	// #0
    8c2c:	97ffffc1 	bl	8b30 <putsgent@@Base+0x1a0>
    8c30:	17fffff9 	b	8c14 <putsgent@@Base+0x284>
    8c34:	d503201f 	nop
    8c38:	a9bd7bfd 	stp	x29, x30, [sp, #-48]!
    8c3c:	7100003f 	cmp	w1, #0x0
    8c40:	910003fd 	mov	x29, sp
    8c44:	a9025bf5 	stp	x21, x22, [sp, #32]
    8c48:	aa0003f6 	mov	x22, x0
    8c4c:	540004ed 	b.le	8ce8 <putsgent@@Base+0x358>
    8c50:	aa0203f5 	mov	x21, x2
    8c54:	a90153f3 	stp	x19, x20, [sp, #16]
    8c58:	aa0003f4 	mov	x20, x0
    8c5c:	2a0103f3 	mov	w19, w1
    8c60:	aa1503e2 	mov	x2, x21
    8c64:	2a1303e1 	mov	w1, w19
    8c68:	aa1403e0 	mov	x0, x20
    8c6c:	97ffea11 	bl	34b0 <fgets@plt>
    8c70:	eb00029f 	cmp	x20, x0
    8c74:	52800b81 	mov	w1, #0x5c                  	// #92
    8c78:	54000281 	b.ne	8cc8 <putsgent@@Base+0x338>  // b.any
    8c7c:	d503201f 	nop
    8c80:	97ffe940 	bl	3180 <strrchr@plt>
    8c84:	b4000300 	cbz	x0, 8ce4 <putsgent@@Base+0x354>
    8c88:	cb140001 	sub	x1, x0, x20
    8c8c:	aa0003f4 	mov	x20, x0
    8c90:	4b010273 	sub	w19, w19, w1
    8c94:	39400401 	ldrb	w1, [x0, #1]
    8c98:	7100283f 	cmp	w1, #0xa
    8c9c:	54000241 	b.ne	8ce4 <putsgent@@Base+0x354>  // b.any
    8ca0:	7100027f 	cmp	w19, #0x0
    8ca4:	5400020d 	b.le	8ce4 <putsgent@@Base+0x354>
    8ca8:	3900001f 	strb	wzr, [x0]
    8cac:	2a1303e1 	mov	w1, w19
    8cb0:	aa1503e2 	mov	x2, x21
    8cb4:	aa1403e0 	mov	x0, x20
    8cb8:	97ffe9fe 	bl	34b0 <fgets@plt>
    8cbc:	eb00029f 	cmp	x20, x0
    8cc0:	52800b81 	mov	w1, #0x5c                  	// #92
    8cc4:	54fffde0 	b.eq	8c80 <putsgent@@Base+0x2f0>  // b.none
    8cc8:	eb16029f 	cmp	x20, x22
    8ccc:	9a9f12d6 	csel	x22, x22, xzr, ne  // ne = any
    8cd0:	aa1603e0 	mov	x0, x22
    8cd4:	a94153f3 	ldp	x19, x20, [sp, #16]
    8cd8:	a9425bf5 	ldp	x21, x22, [sp, #32]
    8cdc:	a8c37bfd 	ldp	x29, x30, [sp], #48
    8ce0:	d65f03c0 	ret
    8ce4:	a94153f3 	ldp	x19, x20, [sp, #16]
    8ce8:	aa1603e0 	mov	x0, x22
    8cec:	a9425bf5 	ldp	x21, x22, [sp, #32]
    8cf0:	a8c37bfd 	ldp	x29, x30, [sp], #48
    8cf4:	d65f03c0 	ret
    8cf8:	a9be7bfd 	stp	x29, x30, [sp, #-32]!
    8cfc:	910003fd 	mov	x29, sp
    8d00:	a90153f3 	stp	x19, x20, [sp, #16]
    8d04:	aa0003f3 	mov	x19, x0
    8d08:	39400000 	ldrb	w0, [x0]
    8d0c:	34000180 	cbz	w0, 8d3c <putsgent@@Base+0x3ac>
    8d10:	aa0103f4 	mov	x20, x1
    8d14:	14000003 	b	8d20 <putsgent@@Base+0x390>
    8d18:	38401e60 	ldrb	w0, [x19, #1]!
    8d1c:	34000100 	cbz	w0, 8d3c <putsgent@@Base+0x3ac>
    8d20:	aa1403e1 	mov	x1, x20
    8d24:	97ffe86f 	bl	2ee0 <putc@plt>
    8d28:	3100041f 	cmn	w0, #0x1
    8d2c:	54ffff61 	b.ne	8d18 <putsgent@@Base+0x388>  // b.any
    8d30:	a94153f3 	ldp	x19, x20, [sp, #16]
    8d34:	a8c27bfd 	ldp	x29, x30, [sp], #32
    8d38:	d65f03c0 	ret
    8d3c:	52800000 	mov	w0, #0x0                   	// #0
    8d40:	a94153f3 	ldp	x19, x20, [sp, #16]
    8d44:	a8c27bfd 	ldp	x29, x30, [sp], #32
    8d48:	d65f03c0 	ret
    8d4c:	d503201f 	nop
    8d50:	a9bc7bfd 	stp	x29, x30, [sp, #-64]!
    8d54:	910003fd 	mov	x29, sp
    8d58:	a90153f3 	stp	x19, x20, [sp, #16]
    8d5c:	f0000094 	adrp	x20, 1b000 <putsgent@@Base+0x12670>
    8d60:	91258294 	add	x20, x20, #0x960
    8d64:	a9025bf5 	stp	x21, x22, [sp, #32]
    8d68:	f0000095 	adrp	x21, 1b000 <putsgent@@Base+0x12670>
    8d6c:	912562b5 	add	x21, x21, #0x958
    8d70:	cb150294 	sub	x20, x20, x21
    8d74:	2a0003f6 	mov	w22, w0
    8d78:	a90363f7 	stp	x23, x24, [sp, #48]
    8d7c:	aa0103f7 	mov	x23, x1
    8d80:	aa0203f8 	mov	x24, x2
    8d84:	97ffe7e7 	bl	2d20 <memcpy@plt-0x40>
    8d88:	eb940fff 	cmp	xzr, x20, asr #3
    8d8c:	54000160 	b.eq	8db8 <putsgent@@Base+0x428>  // b.none
    8d90:	9343fe94 	asr	x20, x20, #3
    8d94:	d2800013 	mov	x19, #0x0                   	// #0
    8d98:	f8737aa3 	ldr	x3, [x21, x19, lsl #3]
    8d9c:	aa1803e2 	mov	x2, x24
    8da0:	91000673 	add	x19, x19, #0x1
    8da4:	aa1703e1 	mov	x1, x23
    8da8:	2a1603e0 	mov	w0, w22
    8dac:	d63f0060 	blr	x3
    8db0:	eb13029f 	cmp	x20, x19
    8db4:	54ffff21 	b.ne	8d98 <putsgent@@Base+0x408>  // b.any
    8db8:	a94153f3 	ldp	x19, x20, [sp, #16]
    8dbc:	a9425bf5 	ldp	x21, x22, [sp, #32]
    8dc0:	a94363f7 	ldp	x23, x24, [sp, #48]
    8dc4:	a8c47bfd 	ldp	x29, x30, [sp], #64
    8dc8:	d65f03c0 	ret
    8dcc:	d503201f 	nop
    8dd0:	d65f03c0 	ret

Disassembly of section .fini:

0000000000008dd4 <.fini>:
    8dd4:	a9bf7bfd 	stp	x29, x30, [sp, #-16]!
    8dd8:	910003fd 	mov	x29, sp
    8ddc:	a8c17bfd 	ldp	x29, x30, [sp], #16
    8de0:	d65f03c0 	ret
